
PingPongGame.elf:     file format elf32-avr

Sections:
Idx Name          Size      VMA       LMA       File off  Algn
  0 .data         000001ac  00800100  00001606  0000169a  2**0
                  CONTENTS, ALLOC, LOAD, DATA
  1 .text         00001606  00000000  00000000  00000094  2**1
                  CONTENTS, ALLOC, LOAD, READONLY, CODE
  2 .bss          0000000c  008002ac  008002ac  00001846  2**0
                  ALLOC
  3 .comment      00000030  00000000  00000000  00001846  2**0
                  CONTENTS, READONLY
  4 .debug_aranges 000001e8  00000000  00000000  00001876  2**0
                  CONTENTS, READONLY, DEBUGGING
  5 .debug_info   00002776  00000000  00000000  00001a5e  2**0
                  CONTENTS, READONLY, DEBUGGING
  6 .debug_abbrev 00000bb4  00000000  00000000  000041d4  2**0
                  CONTENTS, READONLY, DEBUGGING
  7 .debug_line   00000d4f  00000000  00000000  00004d88  2**0
                  CONTENTS, READONLY, DEBUGGING
  8 .debug_frame  00000474  00000000  00000000  00005ad8  2**2
                  CONTENTS, READONLY, DEBUGGING
  9 .debug_str    00000576  00000000  00000000  00005f4c  2**0
                  CONTENTS, READONLY, DEBUGGING
 10 .debug_loc    000018e5  00000000  00000000  000064c2  2**0
                  CONTENTS, READONLY, DEBUGGING
 11 .debug_ranges 00000268  00000000  00000000  00007da7  2**0
                  CONTENTS, READONLY, DEBUGGING

Disassembly of section .text:

00000000 <__vectors>:
       0:	0c 94 31 01 	jmp	0x262	; 0x262 <__ctors_end>
       4:	0c 94 4e 01 	jmp	0x29c	; 0x29c <__bad_interrupt>
       8:	0c 94 4e 01 	jmp	0x29c	; 0x29c <__bad_interrupt>
       c:	0c 94 4e 01 	jmp	0x29c	; 0x29c <__bad_interrupt>
      10:	0c 94 4e 01 	jmp	0x29c	; 0x29c <__bad_interrupt>
      14:	0c 94 4e 01 	jmp	0x29c	; 0x29c <__bad_interrupt>
      18:	0c 94 4e 01 	jmp	0x29c	; 0x29c <__bad_interrupt>
      1c:	0c 94 4e 01 	jmp	0x29c	; 0x29c <__bad_interrupt>
      20:	0c 94 4e 01 	jmp	0x29c	; 0x29c <__bad_interrupt>
      24:	0c 94 4e 01 	jmp	0x29c	; 0x29c <__bad_interrupt>
      28:	0c 94 4e 01 	jmp	0x29c	; 0x29c <__bad_interrupt>
      2c:	0c 94 4e 01 	jmp	0x29c	; 0x29c <__bad_interrupt>
      30:	0c 94 4e 01 	jmp	0x29c	; 0x29c <__bad_interrupt>
      34:	0c 94 4e 01 	jmp	0x29c	; 0x29c <__bad_interrupt>
      38:	0c 94 4e 01 	jmp	0x29c	; 0x29c <__bad_interrupt>
      3c:	0c 94 4e 01 	jmp	0x29c	; 0x29c <__bad_interrupt>
      40:	0c 94 4e 01 	jmp	0x29c	; 0x29c <__bad_interrupt>
      44:	0c 94 4e 01 	jmp	0x29c	; 0x29c <__bad_interrupt>
      48:	0c 94 4e 01 	jmp	0x29c	; 0x29c <__bad_interrupt>
      4c:	0c 94 4e 01 	jmp	0x29c	; 0x29c <__bad_interrupt>
      50:	0c 94 4e 01 	jmp	0x29c	; 0x29c <__bad_interrupt>
      54:	0c 94 4e 01 	jmp	0x29c	; 0x29c <__bad_interrupt>
      58:	0c 94 4e 01 	jmp	0x29c	; 0x29c <__bad_interrupt>
      5c:	0c 94 4e 01 	jmp	0x29c	; 0x29c <__bad_interrupt>
      60:	0c 94 4e 01 	jmp	0x29c	; 0x29c <__bad_interrupt>
      64:	0c 94 4e 01 	jmp	0x29c	; 0x29c <__bad_interrupt>
      68:	0c 94 4e 01 	jmp	0x29c	; 0x29c <__bad_interrupt>
      6c:	0c 94 4e 01 	jmp	0x29c	; 0x29c <__bad_interrupt>

00000070 <__trampolines_end>:
      70:	00 0e       	add	r0, r16
      72:	3b 21       	and	r19, r11
      74:	63 c6       	rjmp	.+3270   	; 0xd3c <__stack+0x83d>
      76:	63 21       	and	r22, r3
      78:	3b 0e       	add	r3, r27
      7a:	00 00       	nop
      7c:	0e 3f       	cpi	r16, 0xFE	; 254
      7e:	3f 7f       	andi	r19, 0xFF	; 255
      80:	fe 7f       	andi	r31, 0xFE	; 254
      82:	3f 3f       	cpi	r19, 0xFF	; 255
      84:	0e 00       	.word	0x000e	; ????

00000086 <font5>:
      86:	00 00 00 00 00 00 00 5f 00 00 00 07 00 07 00 14     ......._........
      96:	7f 14 7f 14 24 2a 7f 2a 12 23 13 08 64 62 36 49     ....$*.*.#..db6I
      a6:	55 22 50 00 05 03 00 00 00 1c 22 41 00 00 41 22     U"P......."A..A"
      b6:	1c 00 08 2a 1c 2a 08 08 08 3e 08 08 00 50 30 00     ...*.*...>...P0.
      c6:	00 08 08 08 08 08 00 60 60 00 00 20 10 08 04 02     .......``.. ....
      d6:	3e 51 49 45 3e 00 42 7f 40 00 42 61 51 49 46 21     >QIE>.B.@.BaQIF!
      e6:	41 45 4b 31 18 14 12 7f 10 27 45 45 45 39 3c 4a     AEK1.....'EEE9<J
      f6:	49 49 30 01 71 09 05 03 36 49 49 49 36 06 49 49     II0.q...6III6.II
     106:	29 1e 00 36 36 00 00 00 56 36 00 00 00 08 14 22     )..66...V6....."
     116:	41 14 14 14 14 14 41 22 14 08 00 02 01 51 09 06     A.....A".....Q..
     126:	32 49 79 41 3e 7e 11 11 11 7e 7f 49 49 49 36 3e     2IyA>~...~.III6>
     136:	41 41 41 22 7f 41 41 22 1c 7f 49 49 49 41 7f 09     AAA".AA"..IIIA..
     146:	09 01 01 3e 41 41 51 32 7f 08 08 08 7f 00 41 7f     ...>AAQ2......A.
     156:	41 00 20 40 41 3f 01 7f 08 14 22 41 7f 40 40 40     A. @A?...."A.@@@
     166:	40 7f 02 04 02 7f 7f 04 08 10 7f 3e 41 41 41 3e     @..........>AAA>
     176:	7f 09 09 09 06 3e 41 51 21 5e 7f 09 19 29 46 46     .....>AQ!^...)FF
     186:	49 49 49 31 01 01 7f 01 01 3f 40 40 40 3f 1f 20     III1.....?@@@?. 
     196:	40 20 1f 7f 20 18 20 7f 63 14 08 14 63 03 04 78     @ .. . .c...c..x
     1a6:	04 03 61 51 49 45 43 00 00 7f 41 41 02 04 08 10     ..aQIEC...AA....
     1b6:	20 41 41 7f 00 00 04 02 01 02 04 40 40 40 40 40      AA........@@@@@
     1c6:	00 01 02 04 00 20 54 54 54 78 7f 48 44 44 38 38     ..... TTTx.HDD88
     1d6:	44 44 44 20 38 44 44 48 7f 38 54 54 54 18 08 7e     DDD 8DDH.8TTT..~
     1e6:	09 01 02 08 14 54 54 3c 7f 08 04 04 78 00 44 7d     .....TT<....x.D}
     1f6:	40 00 20 40 44 3d 00 00 7f 10 28 44 00 41 7f 40     @. @D=....(D.A.@
     206:	00 7c 04 18 04 78 7c 08 04 04 78 38 44 44 44 38     .|...x|...x8DDD8
     216:	7c 14 14 14 08 08 14 14 18 7c 7c 08 04 04 08 48     |........||....H
     226:	54 54 54 20 04 3f 44 40 20 3c 40 40 20 7c 1c 20     TTT .?D@ <@@ |. 
     236:	40 20 1c 3c 40 30 40 3c 44 28 10 28 44 0c 50 50     @ .<@0@<D(.(D.PP
     246:	50 3c 44 64 54 4c 44 00 08 36 41 00 00 00 7f 00     P<DdTLD..6A.....
     256:	00 00 41 36 08 00 02 01 03 02 01 00                 ..A6........

00000262 <__ctors_end>:
     262:	11 24       	eor	r1, r1
     264:	1f be       	out	0x3f, r1	; 63
     266:	cf ef       	ldi	r28, 0xFF	; 255
     268:	d4 e0       	ldi	r29, 0x04	; 4
     26a:	de bf       	out	0x3e, r29	; 62
     26c:	cd bf       	out	0x3d, r28	; 61

0000026e <__do_copy_data>:
     26e:	12 e0       	ldi	r17, 0x02	; 2
     270:	a0 e0       	ldi	r26, 0x00	; 0
     272:	b1 e0       	ldi	r27, 0x01	; 1
     274:	e6 e0       	ldi	r30, 0x06	; 6
     276:	f6 e1       	ldi	r31, 0x16	; 22
     278:	02 c0       	rjmp	.+4      	; 0x27e <__do_copy_data+0x10>
     27a:	05 90       	lpm	r0, Z+
     27c:	0d 92       	st	X+, r0
     27e:	ac 3a       	cpi	r26, 0xAC	; 172
     280:	b1 07       	cpc	r27, r17
     282:	d9 f7       	brne	.-10     	; 0x27a <__do_copy_data+0xc>

00000284 <__do_clear_bss>:
     284:	22 e0       	ldi	r18, 0x02	; 2
     286:	ac ea       	ldi	r26, 0xAC	; 172
     288:	b2 e0       	ldi	r27, 0x02	; 2
     28a:	01 c0       	rjmp	.+2      	; 0x28e <.do_clear_bss_start>

0000028c <.do_clear_bss_loop>:
     28c:	1d 92       	st	X+, r1

0000028e <.do_clear_bss_start>:
     28e:	a8 3b       	cpi	r26, 0xB8	; 184
     290:	b2 07       	cpc	r27, r18
     292:	e1 f7       	brne	.-8      	; 0x28c <.do_clear_bss_loop>
     294:	0e 94 88 08 	call	0x1110	; 0x1110 <main>
     298:	0c 94 01 0b 	jmp	0x1602	; 0x1602 <_exit>

0000029c <__bad_interrupt>:
     29c:	0c 94 00 00 	jmp	0	; 0x0 <__vectors>

000002a0 <read_adc>:

uint8_t read_adc(int channel)
{
	volatile uint8_t *ADC = (uint8_t*)0x1400;
	uint8_t mux_adress = channel;
	ADC[0] = mux_adress;
     2a0:	80 93 00 14 	sts	0x1400, r24
	#else
		//round up by default
		__ticks_dc = (uint32_t)(ceil(fabs(__tmp)));
	#endif

	__builtin_avr_delay_cycles(__ticks_dc);
     2a4:	86 e6       	ldi	r24, 0x66	; 102
     2a6:	92 e0       	ldi	r25, 0x02	; 2
     2a8:	01 97       	sbiw	r24, 0x01	; 1
     2aa:	f1 f7       	brne	.-4      	; 0x2a8 <read_adc+0x8>
     2ac:	00 00       	nop
	_delay_us(500);
	uint8_t val = ADC[0];
     2ae:	80 91 00 14 	lds	r24, 0x1400
	return val;
     2b2:	08 95       	ret

000002b4 <CAN_init>:

void CAN_init(void)
{
		/*SPI_MasterInit();
		SPI_SlaveInit();*/
		MCP_reset();
     2b4:	0e 94 96 08 	call	0x112c	; 0x112c <MCP_reset>
     2b8:	82 e5       	ldi	r24, 0x52	; 82
     2ba:	8a 95       	dec	r24
     2bc:	f1 f7       	brne	.-4      	; 0x2ba <CAN_init+0x6>
		_delay_us(50);

		MCP_write(MCP_CANCTRL, MODE_CONFIG);		
     2be:	60 e8       	ldi	r22, 0x80	; 128
     2c0:	8f e0       	ldi	r24, 0x0F	; 15
     2c2:	0e 94 b3 08 	call	0x1166	; 0x1166 <MCP_write>

		/*MCP_write(MCP_CNF1, 0x20); // Write config 1
		MCP_write(MCP_CNF2, 0x92); // Write config 2
		MCP_write(MCP_CNF3, 0xC2); // Write config 3*/
		
		MCP_write(MCP_CANINTE, 0x03);	//
     2c6:	63 e0       	ldi	r22, 0x03	; 3
     2c8:	8b e2       	ldi	r24, 0x2B	; 43
     2ca:	0e 94 b3 08 	call	0x1166	; 0x1166 <MCP_write>
		MCP_write(MCP_CANINTF, 0x00);	//
     2ce:	60 e0       	ldi	r22, 0x00	; 0
     2d0:	8c e2       	ldi	r24, 0x2C	; 44
     2d2:	0e 94 b3 08 	call	0x1166	; 0x1166 <MCP_write>
		MCP_write(MCP_EFLG, 0x00);		//
     2d6:	60 e0       	ldi	r22, 0x00	; 0
     2d8:	8d e2       	ldi	r24, 0x2D	; 45
     2da:	0e 94 b3 08 	call	0x1166	; 0x1166 <MCP_write>
		
		MCP_write(0x0C, 0x00);			 // Disable all interrupts
     2de:	60 e0       	ldi	r22, 0x00	; 0
     2e0:	8c e0       	ldi	r24, 0x0C	; 12
     2e2:	0e 94 b3 08 	call	0x1166	; 0x1166 <MCP_write>
		MCP_write(0x0D, 0x00);			// Clear TXRTSCTRL
     2e6:	60 e0       	ldi	r22, 0x00	; 0
     2e8:	8d e0       	ldi	r24, 0x0D	; 13
     2ea:	0e 94 b3 08 	call	0x1166	; 0x1166 <MCP_write>
		
		
		MCP_write(MCP_RXB0CTRL, 0x60);		// Receive buffer 0 control (turn mask/filters off, receive any message) 
     2ee:	60 e6       	ldi	r22, 0x60	; 96
     2f0:	80 e6       	ldi	r24, 0x60	; 96
     2f2:	0e 94 b3 08 	call	0x1166	; 0x1166 <MCP_write>
		MCP_write(MCP_RXB1CTRL, 0x60);		// Receive buffer 1 control (turn mask/filters off, receive any message)
     2f6:	60 e6       	ldi	r22, 0x60	; 96
     2f8:	80 e7       	ldi	r24, 0x70	; 112
     2fa:	0e 94 b3 08 	call	0x1166	; 0x1166 <MCP_write>

		//MCP_write(MCP_CANCTRL, 0x44);		// Enable can controller
		//MCP_bit_mod(MCP_CANCTRL,MODE_MASK,MODE_NORMAL);
		MCP_write(MCP_CANCTRL,MODE_NORMAL);
     2fe:	60 e0       	ldi	r22, 0x00	; 0
     300:	8f e0       	ldi	r24, 0x0F	; 15
     302:	0e 94 b3 08 	call	0x1166	; 0x1166 <MCP_write>
     306:	08 95       	ret

00000308 <CAN_message_send>:
		
	
}

void CAN_message_send(msg can_tx)
{
     308:	cf 92       	push	r12
     30a:	df 92       	push	r13
     30c:	ef 92       	push	r14
     30e:	ff 92       	push	r15
     310:	0f 93       	push	r16
     312:	1f 93       	push	r17
     314:	cf 93       	push	r28
     316:	df 93       	push	r29
     318:	cd b7       	in	r28, 0x3d	; 61
     31a:	de b7       	in	r29, 0x3e	; 62
     31c:	2b 97       	sbiw	r28, 0x0b	; 11
     31e:	0f b6       	in	r0, 0x3f	; 63
     320:	f8 94       	cli
     322:	de bf       	out	0x3e, r29	; 62
     324:	0f be       	out	0x3f, r0	; 63
     326:	cd bf       	out	0x3d, r28	; 61
     328:	e9 82       	std	Y+1, r14	; 0x01
     32a:	fa 82       	std	Y+2, r15	; 0x02
     32c:	0b 83       	std	Y+3, r16	; 0x03
     32e:	1c 83       	std	Y+4, r17	; 0x04
     330:	2d 83       	std	Y+5, r18	; 0x05
     332:	3e 83       	std	Y+6, r19	; 0x06
     334:	4f 83       	std	Y+7, r20	; 0x07
     336:	58 87       	std	Y+8, r21	; 0x08
     338:	69 87       	std	Y+9, r22	; 0x09
     33a:	7a 87       	std	Y+10, r23	; 0x0a
     33c:	8b 87       	std	Y+11, r24	; 0x0b
	//MCP_write(MCP_TXB0CTRL, 0x03);				
	
	MCP_write(MCP_TXB0SIDH, can_tx.id);
     33e:	6e 2d       	mov	r22, r14
     340:	81 e3       	ldi	r24, 0x31	; 49
     342:	0e 94 b3 08 	call	0x1166	; 0x1166 <MCP_write>
	MCP_write(MCP_TXB0SIDH, can_tx.id);
     346:	6e 2d       	mov	r22, r14
     348:	81 e3       	ldi	r24, 0x31	; 49
     34a:	0e 94 b3 08 	call	0x1166	; 0x1166 <MCP_write>

	//MCP_write(MCP_TXB0SIDL, can_tx.id);

	MCP_write(MCP_TXB0DLC, (can_tx.length));
     34e:	60 2f       	mov	r22, r16
     350:	85 e3       	ldi	r24, 0x35	; 53
     352:	0e 94 b3 08 	call	0x1166	; 0x1166 <MCP_write>
	for(int i = 0; i < can_tx.length; i++)
     356:	c0 2e       	mov	r12, r16
     358:	d1 2c       	mov	r13, r1
     35a:	1c 14       	cp	r1, r12
     35c:	1d 04       	cpc	r1, r13
     35e:	94 f4       	brge	.+36     	; 0x384 <CAN_message_send+0x7c>
     360:	7e 01       	movw	r14, r28
     362:	84 e0       	ldi	r24, 0x04	; 4
     364:	e8 0e       	add	r14, r24
     366:	f1 1c       	adc	r15, r1
     368:	00 e0       	ldi	r16, 0x00	; 0
     36a:	10 e0       	ldi	r17, 0x00	; 0
	{
		MCP_write(MCP_TXB0D0 + i, can_tx.data[i]);
     36c:	f7 01       	movw	r30, r14
     36e:	61 91       	ld	r22, Z+
     370:	7f 01       	movw	r14, r30
     372:	86 e3       	ldi	r24, 0x36	; 54
     374:	80 0f       	add	r24, r16
     376:	0e 94 b3 08 	call	0x1166	; 0x1166 <MCP_write>
	MCP_write(MCP_TXB0SIDH, can_tx.id);

	//MCP_write(MCP_TXB0SIDL, can_tx.id);

	MCP_write(MCP_TXB0DLC, (can_tx.length));
	for(int i = 0; i < can_tx.length; i++)
     37a:	0f 5f       	subi	r16, 0xFF	; 255
     37c:	1f 4f       	sbci	r17, 0xFF	; 255
     37e:	0c 15       	cp	r16, r12
     380:	1d 05       	cpc	r17, r13
     382:	a4 f3       	brlt	.-24     	; 0x36c <CAN_message_send+0x64>
	{
		MCP_write(MCP_TXB0D0 + i, can_tx.data[i]);
	}
	MCP_rts(MCP_RTS_TX0);
     384:	81 e8       	ldi	r24, 0x81	; 129
     386:	0e 94 c5 08 	call	0x118a	; 0x118a <MCP_rts>
	
	//printf("canstst: %x\n",MCP_read(MCP_CANSTAT));
}
     38a:	2b 96       	adiw	r28, 0x0b	; 11
     38c:	0f b6       	in	r0, 0x3f	; 63
     38e:	f8 94       	cli
     390:	de bf       	out	0x3e, r29	; 62
     392:	0f be       	out	0x3f, r0	; 63
     394:	cd bf       	out	0x3d, r28	; 61
     396:	df 91       	pop	r29
     398:	cf 91       	pop	r28
     39a:	1f 91       	pop	r17
     39c:	0f 91       	pop	r16
     39e:	ff 90       	pop	r15
     3a0:	ef 90       	pop	r14
     3a2:	df 90       	pop	r13
     3a4:	cf 90       	pop	r12
     3a6:	08 95       	ret

000003a8 <CAN_data_receive>:

void CAN_data_receive(msg *message)
{
     3a8:	ef 92       	push	r14
     3aa:	ff 92       	push	r15
     3ac:	0f 93       	push	r16
     3ae:	1f 93       	push	r17
     3b0:	cf 93       	push	r28
     3b2:	df 93       	push	r29
     3b4:	7c 01       	movw	r14, r24
	//msg message;

	message->id = (MCP_read(MCP_RXB0SIDH));
     3b6:	81 e6       	ldi	r24, 0x61	; 97
     3b8:	0e 94 a5 08 	call	0x114a	; 0x114a <MCP_read>
     3bc:	90 e0       	ldi	r25, 0x00	; 0
     3be:	f7 01       	movw	r30, r14
     3c0:	91 83       	std	Z+1, r25	; 0x01
     3c2:	80 83       	st	Z, r24
	message->length = MCP_read(MCP_RXB0DLC);
     3c4:	85 e6       	ldi	r24, 0x65	; 101
     3c6:	0e 94 a5 08 	call	0x114a	; 0x114a <MCP_read>
     3ca:	f7 01       	movw	r30, r14
     3cc:	82 83       	std	Z+2, r24	; 0x02

	for(int i = 0; i < message->length; i++) 
     3ce:	88 23       	and	r24, r24
     3d0:	99 f0       	breq	.+38     	; 0x3f8 <CAN_data_receive+0x50>
     3d2:	87 01       	movw	r16, r14
     3d4:	0d 5f       	subi	r16, 0xFD	; 253
     3d6:	1f 4f       	sbci	r17, 0xFF	; 255
     3d8:	c0 e0       	ldi	r28, 0x00	; 0
     3da:	d0 e0       	ldi	r29, 0x00	; 0
	{
		message->data[i] = MCP_read(MCP_RXB0DM + i);
     3dc:	8c 2f       	mov	r24, r28
     3de:	8a 59       	subi	r24, 0x9A	; 154
     3e0:	0e 94 a5 08 	call	0x114a	; 0x114a <MCP_read>
     3e4:	f8 01       	movw	r30, r16
     3e6:	81 93       	st	Z+, r24
     3e8:	8f 01       	movw	r16, r30
	//msg message;

	message->id = (MCP_read(MCP_RXB0SIDH));
	message->length = MCP_read(MCP_RXB0DLC);

	for(int i = 0; i < message->length; i++) 
     3ea:	21 96       	adiw	r28, 0x01	; 1
     3ec:	f7 01       	movw	r30, r14
     3ee:	22 81       	ldd	r18, Z+2	; 0x02
     3f0:	30 e0       	ldi	r19, 0x00	; 0
     3f2:	c2 17       	cp	r28, r18
     3f4:	d3 07       	cpc	r29, r19
     3f6:	94 f3       	brlt	.-28     	; 0x3dc <CAN_data_receive+0x34>
	{
		message->data[i] = MCP_read(MCP_RXB0DM + i);
	}

	MCP_write(MCP_CANINTF,0);
     3f8:	60 e0       	ldi	r22, 0x00	; 0
     3fa:	8c e2       	ldi	r24, 0x2C	; 44
     3fc:	0e 94 b3 08 	call	0x1166	; 0x1166 <MCP_write>

	//return message;
}
     400:	df 91       	pop	r29
     402:	cf 91       	pop	r28
     404:	1f 91       	pop	r17
     406:	0f 91       	pop	r16
     408:	ff 90       	pop	r15
     40a:	ef 90       	pop	r14
     40c:	08 95       	ret

0000040e <new_oled_menu>:
	
	return lives;
}*/

void new_oled_menu()
{
     40e:	cf 93       	push	r28
     410:	df 93       	push	r29
     412:	cd b7       	in	r28, 0x3d	; 61
     414:	de b7       	in	r29, 0x3e	; 62
     416:	cf 5a       	subi	r28, 0xAF	; 175
     418:	d1 40       	sbci	r29, 0x01	; 1
     41a:	0f b6       	in	r0, 0x3f	; 63
     41c:	f8 94       	cli
     41e:	de bf       	out	0x3e, r29	; 62
     420:	0f be       	out	0x3f, r0	; 63
     422:	cd bf       	out	0x3d, r28	; 61
	const char menu[4][20] = { // menu 1, 13 plasser
     424:	80 e5       	ldi	r24, 0x50	; 80
     426:	e2 e2       	ldi	r30, 0x22	; 34
     428:	f1 e0       	ldi	r31, 0x01	; 1
     42a:	de 01       	movw	r26, r28
     42c:	11 96       	adiw	r26, 0x01	; 1
     42e:	01 90       	ld	r0, Z+
     430:	0d 92       	st	X+, r0
     432:	8a 95       	dec	r24
     434:	e1 f7       	brne	.-8      	; 0x42e <new_oled_menu+0x20>
		"--HOVEDMENY--",
		" Choose Team ",
		" Gamemodes   ",
		" High Score  ",
	};
	const char team[5][20] = {  // menu 2, 18 plasser
     436:	84 e6       	ldi	r24, 0x64	; 100
     438:	e2 e7       	ldi	r30, 0x72	; 114
     43a:	f1 e0       	ldi	r31, 0x01	; 1
     43c:	de 01       	movw	r26, r28
     43e:	af 5a       	subi	r26, 0xAF	; 175
     440:	bf 4f       	sbci	r27, 0xFF	; 255
     442:	01 90       	ld	r0, Z+
     444:	0d 92       	st	X+, r0
     446:	8a 95       	dec	r24
     448:	e1 f7       	brne	.-8      	; 0x442 <new_oled_menu+0x34>
		" German           ",
		" Allied           ",
		" Soviet           ",
		" Sweden (cowards) ",
	};
	const char games[4][20] = {  // menu 3, 13 plasser
     44a:	80 e5       	ldi	r24, 0x50	; 80
     44c:	e6 ed       	ldi	r30, 0xD6	; 214
     44e:	f1 e0       	ldi	r31, 0x01	; 1
     450:	de 01       	movw	r26, r28
     452:	ab 54       	subi	r26, 0x4B	; 75
     454:	bf 4f       	sbci	r27, 0xFF	; 255
     456:	01 90       	ld	r0, Z+
     458:	0d 92       	st	X+, r0
     45a:	8a 95       	dec	r24
     45c:	e1 f7       	brne	.-8      	; 0x456 <new_oled_menu+0x48>
		"--GAMEMODES--",
		" Normal      ",
		" Hard-mode   ",
		" Dark souls  ",
	};
	const char team_print[4][22] = {  // print team, 20 plasser
     45e:	88 e5       	ldi	r24, 0x58	; 88
     460:	e6 e2       	ldi	r30, 0x26	; 38
     462:	f2 e0       	ldi	r31, 0x02	; 2
     464:	de 01       	movw	r26, r28
     466:	ab 5f       	subi	r26, 0xFB	; 251
     468:	be 4f       	sbci	r27, 0xFE	; 254
     46a:	01 90       	ld	r0, Z+
     46c:	0d 92       	st	X+, r0
     46e:	8a 95       	dec	r24
     470:	e1 f7       	brne	.-8      	; 0x46a <new_oled_menu+0x5c>
		"Team chosen: German ",
		"Team chosen: Allied ",
		"Team chosen: Soviet ",
		"Team chosen: Sweden ",
	};
	const char game_over[1][25] = {  // game over, 22 PLASSER
     472:	89 e1       	ldi	r24, 0x19	; 25
     474:	ee e7       	ldi	r30, 0x7E	; 126
     476:	f2 e0       	ldi	r31, 0x02	; 2
     478:	de 01       	movw	r26, r28
     47a:	a3 5a       	subi	r26, 0xA3	; 163
     47c:	be 4f       	sbci	r27, 0xFE	; 254
     47e:	01 90       	ld	r0, Z+
     480:	0d 92       	st	X+, r0
     482:	8a 95       	dec	r24
     484:	e1 f7       	brne	.-8      	; 0x47e <new_oled_menu+0x70>
	const char hearts[2][20] = {  // hearts
		" ", //empty heart -- space ---
		"!", //full heart  --- ! ---
	};
	
	const char gameOn[1][20] = {  // menu  -- game on--, 17 plasser
     486:	84 e1       	ldi	r24, 0x14	; 20
     488:	e7 e9       	ldi	r30, 0x97	; 151
     48a:	f2 e0       	ldi	r31, 0x02	; 2
     48c:	de 01       	movw	r26, r28
     48e:	aa 58       	subi	r26, 0x8A	; 138
     490:	be 4f       	sbci	r27, 0xFE	; 254
     492:	01 90       	ld	r0, Z+
     494:	0d 92       	st	X+, r0
     496:	8a 95       	dec	r24
     498:	e1 f7       	brne	.-8      	; 0x492 <new_oled_menu+0x84>
	char lives_tot = 0;
	int i,j,k;
	int count = 0;
	msg can_message;
	
	can_message.id = 0x70;
     49a:	80 e7       	ldi	r24, 0x70	; 112
     49c:	e8 2e       	mov	r14, r24
     49e:	c6 57       	subi	r28, 0x76	; 118
     4a0:	de 4f       	sbci	r29, 0xFE	; 254
     4a2:	88 83       	st	Y, r24
     4a4:	ca 58       	subi	r28, 0x8A	; 138
     4a6:	d1 40       	sbci	r29, 0x01	; 1
     4a8:	c5 57       	subi	r28, 0x75	; 117
     4aa:	de 4f       	sbci	r29, 0xFE	; 254
     4ac:	18 82       	st	Y, r1
     4ae:	cb 58       	subi	r28, 0x8B	; 139
     4b0:	d1 40       	sbci	r29, 0x01	; 1
	can_message.length = 7;				// setting node 2 to w8ting
     4b2:	87 e0       	ldi	r24, 0x07	; 7
     4b4:	c4 57       	subi	r28, 0x74	; 116
     4b6:	de 4f       	sbci	r29, 0xFE	; 254
     4b8:	88 83       	st	Y, r24
     4ba:	cc 58       	subi	r28, 0x8C	; 140
     4bc:	d1 40       	sbci	r29, 0x01	; 1
	can_message.data[2] = 10;
     4be:	8a e0       	ldi	r24, 0x0A	; 10
     4c0:	c1 57       	subi	r28, 0x71	; 113
     4c2:	de 4f       	sbci	r29, 0xFE	; 254
     4c4:	88 83       	st	Y, r24
     4c6:	cf 58       	subi	r28, 0x8F	; 143
     4c8:	d1 40       	sbci	r29, 0x01	; 1
	
	CAN_message_send(can_message);
     4ca:	f1 2c       	mov	r15, r1
     4cc:	07 e0       	ldi	r16, 0x07	; 7
     4ce:	c3 57       	subi	r28, 0x73	; 115
     4d0:	de 4f       	sbci	r29, 0xFE	; 254
     4d2:	18 81       	ld	r17, Y
     4d4:	cd 58       	subi	r28, 0x8D	; 141
     4d6:	d1 40       	sbci	r29, 0x01	; 1
     4d8:	c2 57       	subi	r28, 0x72	; 114
     4da:	de 4f       	sbci	r29, 0xFE	; 254
     4dc:	28 81       	ld	r18, Y
     4de:	ce 58       	subi	r28, 0x8E	; 142
     4e0:	d1 40       	sbci	r29, 0x01	; 1
     4e2:	3a e0       	ldi	r19, 0x0A	; 10
     4e4:	c0 57       	subi	r28, 0x70	; 112
     4e6:	de 4f       	sbci	r29, 0xFE	; 254
     4e8:	48 81       	ld	r20, Y
     4ea:	c0 59       	subi	r28, 0x90	; 144
     4ec:	d1 40       	sbci	r29, 0x01	; 1
     4ee:	cf 56       	subi	r28, 0x6F	; 111
     4f0:	de 4f       	sbci	r29, 0xFE	; 254
     4f2:	58 81       	ld	r21, Y
     4f4:	c1 59       	subi	r28, 0x91	; 145
     4f6:	d1 40       	sbci	r29, 0x01	; 1
     4f8:	ce 56       	subi	r28, 0x6E	; 110
     4fa:	de 4f       	sbci	r29, 0xFE	; 254
     4fc:	68 81       	ld	r22, Y
     4fe:	c2 59       	subi	r28, 0x92	; 146
     500:	d1 40       	sbci	r29, 0x01	; 1
     502:	cd 56       	subi	r28, 0x6D	; 109
     504:	de 4f       	sbci	r29, 0xFE	; 254
     506:	78 81       	ld	r23, Y
     508:	c3 59       	subi	r28, 0x93	; 147
     50a:	d1 40       	sbci	r29, 0x01	; 1
     50c:	cc 56       	subi	r28, 0x6C	; 108
     50e:	de 4f       	sbci	r29, 0xFE	; 254
     510:	88 81       	ld	r24, Y
     512:	c4 59       	subi	r28, 0x94	; 148
     514:	d1 40       	sbci	r29, 0x01	; 1
     516:	0e 94 84 01 	call	0x308	; 0x308 <CAN_message_send>
	int select_menu = 1;    // place in menu
	int sub_menu = 1;		//which menu
	int delay = 500;		
	int team_chosen = 0;
	int gamemode_chosen = 0;
	char lives = 0;
     51a:	c8 55       	subi	r28, 0x58	; 88
     51c:	de 4f       	sbci	r29, 0xFE	; 254
     51e:	18 82       	st	Y, r1
     520:	c8 5a       	subi	r28, 0xA8	; 168
     522:	d1 40       	sbci	r29, 0x01	; 1
	
	
	int select_menu = 1;    // place in menu
	int sub_menu = 1;		//which menu
	int delay = 500;		
	int team_chosen = 0;
     524:	c2 55       	subi	r28, 0x52	; 82
     526:	de 4f       	sbci	r29, 0xFE	; 254
     528:	19 82       	std	Y+1, r1	; 0x01
     52a:	18 82       	st	Y, r1
     52c:	ce 5a       	subi	r28, 0xAE	; 174
     52e:	d1 40       	sbci	r29, 0x01	; 1
	};

	
	
	int select_menu = 1;    // place in menu
	int sub_menu = 1;		//which menu
     530:	81 e0       	ldi	r24, 0x01	; 1
     532:	90 e0       	ldi	r25, 0x00	; 0
				bool button_left = (PINB & (1 << PB0));
				bool button_right = (PINB & (1 << PB1));
				
				
				bool joystick_pressed = val_joystick;		//Ettersom det i utgangspunktet returneres '0' når Joysticken trykkes, implementerer vi den simple koden nedenfor, slik at vi får '1' når Joysticken trykkes på.
				val_joystick = (PINB & (1 << PB2));
     534:	cb 55       	subi	r28, 0x5B	; 91
     536:	de 4f       	sbci	r29, 0xFE	; 254
     538:	18 82       	st	Y, r1
     53a:	c5 5a       	subi	r28, 0xA5	; 165
     53c:	d1 40       	sbci	r29, 0x01	; 1
     53e:	ca 55       	subi	r28, 0x5A	; 90
     540:	de 4f       	sbci	r29, 0xFE	; 254
     542:	18 82       	st	Y, r1
     544:	c6 5a       	subi	r28, 0xA6	; 166
     546:	d1 40       	sbci	r29, 0x01	; 1
     548:	20 e0       	ldi	r18, 0x00	; 0
     54a:	c4 55       	subi	r28, 0x54	; 84
     54c:	de 4f       	sbci	r29, 0xFE	; 254
     54e:	28 83       	st	Y, r18
     550:	cc 5a       	subi	r28, 0xAC	; 172
     552:	d1 40       	sbci	r29, 0x01	; 1
     554:	30 e0       	ldi	r19, 0x00	; 0
     556:	c3 55       	subi	r28, 0x53	; 83
     558:	de 4f       	sbci	r29, 0xFE	; 254
     55a:	38 83       	st	Y, r19
     55c:	cd 5a       	subi	r28, 0xAD	; 173
     55e:	d1 40       	sbci	r29, 0x01	; 1
     560:	cd 55       	subi	r28, 0x5D	; 93
     562:	de 4f       	sbci	r29, 0xFE	; 254
     564:	28 83       	st	Y, r18
     566:	c3 5a       	subi	r28, 0xA3	; 163
     568:	d1 40       	sbci	r29, 0x01	; 1
     56a:	cc 55       	subi	r28, 0x5C	; 92
     56c:	de 4f       	sbci	r29, 0xFE	; 254
     56e:	38 83       	st	Y, r19
     570:	c4 5a       	subi	r28, 0xA4	; 164
     572:	d1 40       	sbci	r29, 0x01	; 1
	
	CAN_message_send(can_message);
	
	while(1){
		select_menu = 1;  // setting the menu to the first choice every time
		while (sub_menu == 1){ // Main menu
     574:	81 30       	cpi	r24, 0x01	; 1
     576:	91 05       	cpc	r25, r1
     578:	a9 f5       	brne	.+106    	; 0x5e4 <__stack+0xe5>
	can_message.data[2] = 10;
	
	CAN_message_send(can_message);
	
	while(1){
		select_menu = 1;  // setting the menu to the first choice every time
     57a:	44 24       	eor	r4, r4
     57c:	43 94       	inc	r4
     57e:	51 2c       	mov	r5, r1
		while (sub_menu == 1){ // Main menu

			unsigned int x_volt = read_adc(ADC_CHANNEL_JOY_X);
     580:	85 e0       	ldi	r24, 0x05	; 5
     582:	90 e0       	ldi	r25, 0x00	; 0
     584:	0e 94 50 01 	call	0x2a0	; 0x2a0 <read_adc>
     588:	18 2f       	mov	r17, r24
			unsigned int y_volt = read_adc(ADC_CHANNEL_JOY_Y);
     58a:	84 e0       	ldi	r24, 0x04	; 4
     58c:	90 e0       	ldi	r25, 0x00	; 0
     58e:	0e 94 50 01 	call	0x2a0	; 0x2a0 <read_adc>
     592:	28 2f       	mov	r18, r24
     594:	30 e0       	ldi	r19, 0x00	; 0
			
			if (y_volt < 125 && select_menu < 3){
     596:	2d 37       	cpi	r18, 0x7D	; 125
     598:	31 05       	cpc	r19, r1
     59a:	38 f4       	brcc	.+14     	; 0x5aa <__stack+0xab>
     59c:	43 e0       	ldi	r20, 0x03	; 3
     59e:	44 16       	cp	r4, r20
     5a0:	51 04       	cpc	r5, r1
     5a2:	1c f4       	brge	.+6      	; 0x5aa <__stack+0xab>
				select_menu++;
     5a4:	8f ef       	ldi	r24, 0xFF	; 255
     5a6:	48 1a       	sub	r4, r24
     5a8:	58 0a       	sbc	r5, r24
			}
			if (y_volt > 130 && select_menu > 1){
     5aa:	23 38       	cpi	r18, 0x83	; 131
     5ac:	31 05       	cpc	r19, r1
     5ae:	38 f0       	brcs	.+14     	; 0x5be <__stack+0xbf>
     5b0:	92 e0       	ldi	r25, 0x02	; 2
     5b2:	49 16       	cp	r4, r25
     5b4:	51 04       	cpc	r5, r1
     5b6:	1c f0       	brlt	.+6      	; 0x5be <__stack+0xbf>
				select_menu--;
     5b8:	e1 e0       	ldi	r30, 0x01	; 1
     5ba:	4e 1a       	sub	r4, r30
     5bc:	51 08       	sbc	r5, r1
			}
			
			if(x_volt > 135){
     5be:	18 38       	cpi	r17, 0x88	; 136
     5c0:	18 f1       	brcs	.+70     	; 0x608 <__stack+0x109>
				if(select_menu == 1){ 	//go to teams
     5c2:	f1 e0       	ldi	r31, 0x01	; 1
     5c4:	4f 16       	cp	r4, r31
     5c6:	51 04       	cpc	r5, r1
     5c8:	89 f4       	brne	.+34     	; 0x5ec <__stack+0xed>
	#else
		//round up by default
		__ticks_dc = (uint32_t)(ceil(fabs(__tmp)));
	#endif

	__builtin_avr_delay_cycles(__ticks_dc);
     5ca:	2f ef       	ldi	r18, 0xFF	; 255
     5cc:	3f e7       	ldi	r19, 0x7F	; 127
     5ce:	47 e0       	ldi	r20, 0x07	; 7
     5d0:	21 50       	subi	r18, 0x01	; 1
     5d2:	30 40       	sbci	r19, 0x00	; 0
     5d4:	40 40       	sbci	r20, 0x00	; 0
     5d6:	e1 f7       	brne	.-8      	; 0x5d0 <__stack+0xd1>
     5d8:	00 c0       	rjmp	.+0      	; 0x5da <__stack+0xdb>
     5da:	00 00       	nop
			
			clear_oled();
			oled_set_column(0);
			oled_set_page(0);
			
			for (k = 0; k < 4; k++){
     5dc:	44 24       	eor	r4, r4
     5de:	43 94       	inc	r4
     5e0:	51 2c       	mov	r5, r1
     5e2:	cd c0       	rjmp	.+410    	; 0x77e <__stack+0x27f>
				}
				oled_set_page(k+1);
			}
			_delay_ms(delay);
		}
		while(sub_menu == 2){	 // Team menu
     5e4:	82 30       	cpi	r24, 0x02	; 2
     5e6:	91 05       	cpc	r25, r1
     5e8:	c9 f3       	breq	.-14     	; 0x5dc <__stack+0xdd>
     5ea:	16 c1       	rjmp	.+556    	; 0x818 <__stack+0x319>
				if(select_menu == 1){ 	//go to teams
					sub_menu = 2;
					_delay_ms(delay);
					break;
				}
				if(select_menu == 2){ 	 // go to gamemodes
     5ec:	82 e0       	ldi	r24, 0x02	; 2
     5ee:	48 16       	cp	r4, r24
     5f0:	51 04       	cpc	r5, r1
     5f2:	51 f4       	brne	.+20     	; 0x608 <__stack+0x109>
     5f4:	9f ef       	ldi	r25, 0xFF	; 255
     5f6:	ef e7       	ldi	r30, 0x7F	; 127
     5f8:	f7 e0       	ldi	r31, 0x07	; 7
     5fa:	91 50       	subi	r25, 0x01	; 1
     5fc:	e0 40       	sbci	r30, 0x00	; 0
     5fe:	f0 40       	sbci	r31, 0x00	; 0
     600:	e1 f7       	brne	.-8      	; 0x5fa <__stack+0xfb>
     602:	00 c0       	rjmp	.+0      	; 0x604 <__stack+0x105>
     604:	00 00       	nop
     606:	cb c1       	rjmp	.+918    	; 0x99e <__stack+0x49f>
					_delay_ms(delay);
					break;
				}*/
			}
			
			clear_oled();
     608:	0e 94 09 09 	call	0x1212	; 0x1212 <clear_oled>
			oled_set_column(0);
     60c:	cb 55       	subi	r28, 0x5B	; 91
     60e:	de 4f       	sbci	r29, 0xFE	; 254
     610:	88 81       	ld	r24, Y
     612:	c5 5a       	subi	r28, 0xA5	; 165
     614:	d1 40       	sbci	r29, 0x01	; 1
     616:	ca 55       	subi	r28, 0x5A	; 90
     618:	de 4f       	sbci	r29, 0xFE	; 254
     61a:	98 81       	ld	r25, Y
     61c:	c6 5a       	subi	r28, 0xA6	; 166
     61e:	d1 40       	sbci	r29, 0x01	; 1
     620:	0e 94 fb 08 	call	0x11f6	; 0x11f6 <oled_set_column>
			oled_set_page(0);
     624:	cb 55       	subi	r28, 0x5B	; 91
     626:	de 4f       	sbci	r29, 0xFE	; 254
     628:	88 81       	ld	r24, Y
     62a:	c5 5a       	subi	r28, 0xA5	; 165
     62c:	d1 40       	sbci	r29, 0x01	; 1
     62e:	ca 55       	subi	r28, 0x5A	; 90
     630:	de 4f       	sbci	r29, 0xFE	; 254
     632:	98 81       	ld	r25, Y
     634:	c6 5a       	subi	r28, 0xA6	; 166
     636:	d1 40       	sbci	r29, 0x01	; 1
     638:	0e 94 05 09 	call	0x120a	; 0x120a <oled_set_page>
     63c:	4c ee       	ldi	r20, 0xEC	; 236
     63e:	92 01       	movw	r18, r4
     640:	42 03       	mulsu	r20, r18
     642:	10 01       	movw	r2, r0
     644:	43 9f       	mul	r20, r19
     646:	30 0c       	add	r3, r0
     648:	11 24       	eor	r1, r1
     64a:	cb 55       	subi	r28, 0x5B	; 91
     64c:	de 4f       	sbci	r29, 0xFE	; 254
     64e:	68 80       	ld	r6, Y
     650:	c5 5a       	subi	r28, 0xA5	; 165
     652:	d1 40       	sbci	r29, 0x01	; 1
     654:	ca 55       	subi	r28, 0x5A	; 90
     656:	de 4f       	sbci	r29, 0xFE	; 254
     658:	78 80       	ld	r7, Y
     65a:	c6 5a       	subi	r28, 0xA6	; 166
     65c:	d1 40       	sbci	r29, 0x01	; 1
			
			for (k = 0; k < 4; k++){
     65e:	86 2c       	mov	r8, r6
     660:	97 2c       	mov	r9, r7
     662:	e4 e1       	ldi	r30, 0x14	; 20
     664:	e4 9d       	mul	r30, r4
     666:	c0 01       	movw	r24, r0
     668:	e5 9d       	mul	r30, r5
     66a:	90 0d       	add	r25, r0
     66c:	11 24       	eor	r1, r1
     66e:	21 e0       	ldi	r18, 0x01	; 1
     670:	30 e0       	ldi	r19, 0x00	; 0
     672:	2c 0f       	add	r18, r28
     674:	3d 1f       	adc	r19, r29
     676:	28 0f       	add	r18, r24
     678:	39 1f       	adc	r19, r25
     67a:	c0 56       	subi	r28, 0x60	; 96
     67c:	de 4f       	sbci	r29, 0xFE	; 254
     67e:	39 83       	std	Y+1, r19	; 0x01
     680:	28 83       	st	Y, r18
     682:	c0 5a       	subi	r28, 0xA0	; 160
     684:	d1 40       	sbci	r29, 0x01	; 1
     686:	60 c0       	rjmp	.+192    	; 0x748 <__stack+0x249>
				for (j = 0; j < 13; j++){
					for (i = 0; i < 5; i++){
						if(select_menu==k){
     688:	48 14       	cp	r4, r8
     68a:	59 04       	cpc	r5, r9
     68c:	d1 f4       	brne	.+52     	; 0x6c2 <__stack+0x1c3>
							oled_set_column(i+(j*5));
     68e:	c7 01       	movw	r24, r14
     690:	80 0f       	add	r24, r16
     692:	91 1f       	adc	r25, r17
     694:	0e 94 fb 08 	call	0x11f6	; 0x11f6 <oled_set_column>
							write_d(~pgm_read_byte(&font5[menu[k][j] - ' '][i]));
     698:	f5 01       	movw	r30, r10
     69a:	80 81       	ld	r24, Z
     69c:	90 e0       	ldi	r25, 0x00	; 0
     69e:	80 97       	sbiw	r24, 0x20	; 32
     6a0:	9c 01       	movw	r18, r24
     6a2:	22 0f       	add	r18, r18
     6a4:	33 1f       	adc	r19, r19
     6a6:	22 0f       	add	r18, r18
     6a8:	33 1f       	adc	r19, r19
     6aa:	82 0f       	add	r24, r18
     6ac:	93 1f       	adc	r25, r19
     6ae:	fc 01       	movw	r30, r24
     6b0:	e0 0f       	add	r30, r16
     6b2:	f1 1f       	adc	r31, r17
     6b4:	ea 57       	subi	r30, 0x7A	; 122
     6b6:	ff 4f       	sbci	r31, 0xFF	; 255
     6b8:	84 91       	lpm	r24, Z
     6ba:	80 95       	com	r24
     6bc:	0e 94 ca 08 	call	0x1194	; 0x1194 <write_d>
     6c0:	17 c0       	rjmp	.+46     	; 0x6f0 <__stack+0x1f1>
						}
						else{
							oled_set_column(i+(j*5));
     6c2:	c7 01       	movw	r24, r14
     6c4:	80 0f       	add	r24, r16
     6c6:	91 1f       	adc	r25, r17
     6c8:	0e 94 fb 08 	call	0x11f6	; 0x11f6 <oled_set_column>
							write_d(pgm_read_byte(&font5[menu[k][j] - ' '][i]));
     6cc:	f6 01       	movw	r30, r12
     6ce:	80 81       	ld	r24, Z
     6d0:	90 e0       	ldi	r25, 0x00	; 0
     6d2:	80 97       	sbiw	r24, 0x20	; 32
     6d4:	fc 01       	movw	r30, r24
     6d6:	ee 0f       	add	r30, r30
     6d8:	ff 1f       	adc	r31, r31
     6da:	ee 0f       	add	r30, r30
     6dc:	ff 1f       	adc	r31, r31
     6de:	e8 0f       	add	r30, r24
     6e0:	f9 1f       	adc	r31, r25
     6e2:	e0 0f       	add	r30, r16
     6e4:	f1 1f       	adc	r31, r17
     6e6:	ea 57       	subi	r30, 0x7A	; 122
     6e8:	ff 4f       	sbci	r31, 0xFF	; 255
     6ea:	84 91       	lpm	r24, Z
     6ec:	0e 94 ca 08 	call	0x1194	; 0x1194 <write_d>
			oled_set_column(0);
			oled_set_page(0);
			
			for (k = 0; k < 4; k++){
				for (j = 0; j < 13; j++){
					for (i = 0; i < 5; i++){
     6f0:	0f 5f       	subi	r16, 0xFF	; 255
     6f2:	1f 4f       	sbci	r17, 0xFF	; 255
     6f4:	05 30       	cpi	r16, 0x05	; 5
     6f6:	11 05       	cpc	r17, r1
     6f8:	39 f6       	brne	.-114    	; 0x688 <__stack+0x189>
     6fa:	f5 e0       	ldi	r31, 0x05	; 5
     6fc:	ef 0e       	add	r14, r31
     6fe:	f1 1c       	adc	r15, r1
     700:	2f ef       	ldi	r18, 0xFF	; 255
     702:	a2 1a       	sub	r10, r18
     704:	b2 0a       	sbc	r11, r18
			clear_oled();
			oled_set_column(0);
			oled_set_page(0);
			
			for (k = 0; k < 4; k++){
				for (j = 0; j < 13; j++){
     706:	31 e4       	ldi	r19, 0x41	; 65
     708:	e3 16       	cp	r14, r19
     70a:	f1 04       	cpc	r15, r1
     70c:	81 f0       	breq	.+32     	; 0x72e <__stack+0x22f>
     70e:	65 01       	movw	r12, r10
     710:	c2 0c       	add	r12, r2
     712:	d3 1c       	adc	r13, r3
     714:	c6 0c       	add	r12, r6
     716:	d7 1c       	adc	r13, r7
	can_message.data[2] = 10;
	
	CAN_message_send(can_message);
	
	while(1){
		select_menu = 1;  // setting the menu to the first choice every time
     718:	cd 55       	subi	r28, 0x5D	; 93
     71a:	de 4f       	sbci	r29, 0xFE	; 254
     71c:	08 81       	ld	r16, Y
     71e:	c3 5a       	subi	r28, 0xA3	; 163
     720:	d1 40       	sbci	r29, 0x01	; 1
     722:	cc 55       	subi	r28, 0x5C	; 92
     724:	de 4f       	sbci	r29, 0xFE	; 254
     726:	18 81       	ld	r17, Y
     728:	c4 5a       	subi	r28, 0xA4	; 164
     72a:	d1 40       	sbci	r29, 0x01	; 1
     72c:	ad cf       	rjmp	.-166    	; 0x688 <__stack+0x189>
							oled_set_column(i+(j*5));
							write_d(pgm_read_byte(&font5[menu[k][j] - ' '][i]));
						}
					}
				}
				oled_set_page(k+1);
     72e:	4f ef       	ldi	r20, 0xFF	; 255
     730:	84 1a       	sub	r8, r20
     732:	94 0a       	sbc	r9, r20
     734:	c4 01       	movw	r24, r8
     736:	0e 94 05 09 	call	0x120a	; 0x120a <oled_set_page>
     73a:	84 e1       	ldi	r24, 0x14	; 20
     73c:	68 0e       	add	r6, r24
     73e:	71 1c       	adc	r7, r1
			
			clear_oled();
			oled_set_column(0);
			oled_set_page(0);
			
			for (k = 0; k < 4; k++){
     740:	94 e0       	ldi	r25, 0x04	; 4
     742:	89 16       	cp	r8, r25
     744:	91 04       	cpc	r9, r1
     746:	89 f0       	breq	.+34     	; 0x76a <__stack+0x26b>
     748:	c0 56       	subi	r28, 0x60	; 96
     74a:	de 4f       	sbci	r29, 0xFE	; 254
     74c:	a8 80       	ld	r10, Y
     74e:	b9 80       	ldd	r11, Y+1	; 0x01
     750:	c0 5a       	subi	r28, 0xA0	; 160
     752:	d1 40       	sbci	r29, 0x01	; 1
	can_message.data[2] = 10;
	
	CAN_message_send(can_message);
	
	while(1){
		select_menu = 1;  // setting the menu to the first choice every time
     754:	c4 55       	subi	r28, 0x54	; 84
     756:	de 4f       	sbci	r29, 0xFE	; 254
     758:	e8 80       	ld	r14, Y
     75a:	cc 5a       	subi	r28, 0xAC	; 172
     75c:	d1 40       	sbci	r29, 0x01	; 1
     75e:	c3 55       	subi	r28, 0x53	; 83
     760:	de 4f       	sbci	r29, 0xFE	; 254
     762:	f8 80       	ld	r15, Y
     764:	cd 5a       	subi	r28, 0xAD	; 173
     766:	d1 40       	sbci	r29, 0x01	; 1
     768:	d2 cf       	rjmp	.-92     	; 0x70e <__stack+0x20f>
     76a:	ef ef       	ldi	r30, 0xFF	; 255
     76c:	ff e7       	ldi	r31, 0x7F	; 127
     76e:	27 e0       	ldi	r18, 0x07	; 7
     770:	e1 50       	subi	r30, 0x01	; 1
     772:	f0 40       	sbci	r31, 0x00	; 0
     774:	20 40       	sbci	r18, 0x00	; 0
     776:	e1 f7       	brne	.-8      	; 0x770 <__stack+0x271>
     778:	00 c0       	rjmp	.+0      	; 0x77a <__stack+0x27b>
     77a:	00 00       	nop
     77c:	01 cf       	rjmp	.-510    	; 0x580 <__stack+0x81>
			}
			_delay_ms(delay);
		}
		while(sub_menu == 2){	 // Team menu

			unsigned int x_volt = read_adc(ADC_CHANNEL_JOY_X);
     77e:	85 e0       	ldi	r24, 0x05	; 5
     780:	90 e0       	ldi	r25, 0x00	; 0
     782:	0e 94 50 01 	call	0x2a0	; 0x2a0 <read_adc>
     786:	08 2f       	mov	r16, r24
     788:	10 e0       	ldi	r17, 0x00	; 0
			unsigned int y_volt = read_adc(ADC_CHANNEL_JOY_Y);
     78a:	84 e0       	ldi	r24, 0x04	; 4
     78c:	90 e0       	ldi	r25, 0x00	; 0
     78e:	0e 94 50 01 	call	0x2a0	; 0x2a0 <read_adc>
     792:	90 e0       	ldi	r25, 0x00	; 0

			
			if (y_volt < 125 && select_menu < 5){	//5 lines
     794:	8d 37       	cpi	r24, 0x7D	; 125
     796:	91 05       	cpc	r25, r1
     798:	38 f4       	brcc	.+14     	; 0x7a8 <__stack+0x2a9>
     79a:	35 e0       	ldi	r19, 0x05	; 5
     79c:	43 16       	cp	r4, r19
     79e:	51 04       	cpc	r5, r1
     7a0:	1c f4       	brge	.+6      	; 0x7a8 <__stack+0x2a9>
				select_menu++;
     7a2:	4f ef       	ldi	r20, 0xFF	; 255
     7a4:	44 1a       	sub	r4, r20
     7a6:	54 0a       	sbc	r5, r20
			}
			if (y_volt > 135 && select_menu > 1){
     7a8:	88 38       	cpi	r24, 0x88	; 136
     7aa:	91 05       	cpc	r25, r1
     7ac:	38 f0       	brcs	.+14     	; 0x7bc <__stack+0x2bd>
     7ae:	82 e0       	ldi	r24, 0x02	; 2
     7b0:	48 16       	cp	r4, r24
     7b2:	51 04       	cpc	r5, r1
     7b4:	1c f0       	brlt	.+6      	; 0x7bc <__stack+0x2bd>
				select_menu--;
     7b6:	91 e0       	ldi	r25, 0x01	; 1
     7b8:	49 1a       	sub	r4, r25
     7ba:	51 08       	sbc	r5, r1
			}
			if(x_volt < 60){
     7bc:	0c 33       	cpi	r16, 0x3C	; 60
     7be:	11 05       	cpc	r17, r1
     7c0:	08 f4       	brcc	.+2      	; 0x7c4 <__stack+0x2c5>
     7c2:	81 c4       	rjmp	.+2306   	; 0x10c6 <__stack+0xbc7>
				sub_menu = 1;
				break;
			}
			if(x_volt > 150){
     7c4:	07 39       	cpi	r16, 0x97	; 151
     7c6:	11 05       	cpc	r17, r1
     7c8:	60 f1       	brcs	.+88     	; 0x822 <__stack+0x323>
				if (select_menu == 1){	//German
     7ca:	e1 e0       	ldi	r30, 0x01	; 1
     7cc:	4e 16       	cp	r4, r30
     7ce:	51 04       	cpc	r5, r1
     7d0:	49 f0       	breq	.+18     	; 0x7e4 <__stack+0x2e5>
					team_chosen = 0;
				}
				if (select_menu == 2){	//allied
     7d2:	f2 e0       	ldi	r31, 0x02	; 2
     7d4:	4f 16       	cp	r4, r31
     7d6:	51 04       	cpc	r5, r1
     7d8:	a1 f0       	breq	.+40     	; 0x802 <__stack+0x303>
					team_chosen = 1;
				}
				if (select_menu == 3){	//soviet
     7da:	23 e0       	ldi	r18, 0x03	; 3
     7dc:	42 16       	cp	r4, r18
     7de:	51 04       	cpc	r5, r1
     7e0:	59 f4       	brne	.+22     	; 0x7f8 <__stack+0x2f9>
     7e2:	74 c4       	rjmp	.+2280   	; 0x10cc <__stack+0xbcd>
				sub_menu = 1;
				break;
			}
			if(x_volt > 150){
				if (select_menu == 1){	//German
					team_chosen = 0;
     7e4:	c2 55       	subi	r28, 0x52	; 82
     7e6:	de 4f       	sbci	r29, 0xFE	; 254
     7e8:	18 82       	st	Y, r1
     7ea:	ce 5a       	subi	r28, 0xAE	; 174
     7ec:	d1 40       	sbci	r29, 0x01	; 1
     7ee:	c1 55       	subi	r28, 0x51	; 81
     7f0:	de 4f       	sbci	r29, 0xFE	; 254
     7f2:	18 82       	st	Y, r1
     7f4:	cf 5a       	subi	r28, 0xAF	; 175
     7f6:	d1 40       	sbci	r29, 0x01	; 1
					team_chosen = 1;
				}
				if (select_menu == 3){	//soviet
					team_chosen = 2;
				}
				if (select_menu == 4){	//sweden
     7f8:	34 e0       	ldi	r19, 0x04	; 4
     7fa:	43 16       	cp	r4, r19
     7fc:	51 04       	cpc	r5, r1
     7fe:	49 f4       	brne	.+18     	; 0x812 <__stack+0x313>
     800:	70 c4       	rjmp	.+2272   	; 0x10e2 <__stack+0xbe3>
			if(x_volt > 150){
				if (select_menu == 1){	//German
					team_chosen = 0;
				}
				if (select_menu == 2){	//allied
					team_chosen = 1;
     802:	81 e0       	ldi	r24, 0x01	; 1
     804:	90 e0       	ldi	r25, 0x00	; 0
     806:	c2 55       	subi	r28, 0x52	; 82
     808:	de 4f       	sbci	r29, 0xFE	; 254
     80a:	99 83       	std	Y+1, r25	; 0x01
     80c:	88 83       	st	Y, r24
     80e:	ce 5a       	subi	r28, 0xAE	; 174
     810:	d1 40       	sbci	r29, 0x01	; 1
					team_chosen = 2;
				}
				if (select_menu == 4){	//sweden
					team_chosen = 3;
				}
				sub_menu = 4;	//print chosen team
     812:	84 e0       	ldi	r24, 0x04	; 4
     814:	90 e0       	ldi	r25, 0x00	; 0
     816:	02 c1       	rjmp	.+516    	; 0xa1c <__stack+0x51d>
			}
			_delay_ms(delay);
		}
		

		while (sub_menu == 3){ 	//Gamemodes menu
     818:	83 30       	cpi	r24, 0x03	; 3
     81a:	91 05       	cpc	r25, r1
     81c:	09 f4       	brne	.+2      	; 0x820 <__stack+0x321>
     81e:	bc c0       	rjmp	.+376    	; 0x998 <__stack+0x499>
     820:	fd c0       	rjmp	.+506    	; 0xa1c <__stack+0x51d>
				}
				sub_menu = 4;	//print chosen team
				break;
			}
			
			clear_oled();
     822:	0e 94 09 09 	call	0x1212	; 0x1212 <clear_oled>
			oled_set_column(0);
     826:	cb 55       	subi	r28, 0x5B	; 91
     828:	de 4f       	sbci	r29, 0xFE	; 254
     82a:	88 81       	ld	r24, Y
     82c:	c5 5a       	subi	r28, 0xA5	; 165
     82e:	d1 40       	sbci	r29, 0x01	; 1
     830:	ca 55       	subi	r28, 0x5A	; 90
     832:	de 4f       	sbci	r29, 0xFE	; 254
     834:	98 81       	ld	r25, Y
     836:	c6 5a       	subi	r28, 0xA6	; 166
     838:	d1 40       	sbci	r29, 0x01	; 1
     83a:	0e 94 fb 08 	call	0x11f6	; 0x11f6 <oled_set_column>
			oled_set_page(0);
     83e:	cb 55       	subi	r28, 0x5B	; 91
     840:	de 4f       	sbci	r29, 0xFE	; 254
     842:	88 81       	ld	r24, Y
     844:	c5 5a       	subi	r28, 0xA5	; 165
     846:	d1 40       	sbci	r29, 0x01	; 1
     848:	ca 55       	subi	r28, 0x5A	; 90
     84a:	de 4f       	sbci	r29, 0xFE	; 254
     84c:	98 81       	ld	r25, Y
     84e:	c6 5a       	subi	r28, 0xA6	; 166
     850:	d1 40       	sbci	r29, 0x01	; 1
     852:	0e 94 05 09 	call	0x120a	; 0x120a <oled_set_page>
     856:	4c ee       	ldi	r20, 0xEC	; 236
     858:	92 01       	movw	r18, r4
     85a:	42 03       	mulsu	r20, r18
     85c:	10 01       	movw	r2, r0
     85e:	43 9f       	mul	r20, r19
     860:	30 0c       	add	r3, r0
     862:	11 24       	eor	r1, r1
     864:	cb 55       	subi	r28, 0x5B	; 91
     866:	de 4f       	sbci	r29, 0xFE	; 254
     868:	68 80       	ld	r6, Y
     86a:	c5 5a       	subi	r28, 0xA5	; 165
     86c:	d1 40       	sbci	r29, 0x01	; 1
     86e:	ca 55       	subi	r28, 0x5A	; 90
     870:	de 4f       	sbci	r29, 0xFE	; 254
     872:	78 80       	ld	r7, Y
     874:	c6 5a       	subi	r28, 0xA6	; 166
     876:	d1 40       	sbci	r29, 0x01	; 1
			
			for (k = 0; k < 5; k++){
     878:	86 2c       	mov	r8, r6
     87a:	97 2c       	mov	r9, r7
     87c:	e4 e1       	ldi	r30, 0x14	; 20
     87e:	e4 9d       	mul	r30, r4
     880:	c0 01       	movw	r24, r0
     882:	e5 9d       	mul	r30, r5
     884:	90 0d       	add	r25, r0
     886:	11 24       	eor	r1, r1
     888:	21 e5       	ldi	r18, 0x51	; 81
     88a:	30 e0       	ldi	r19, 0x00	; 0
     88c:	2c 0f       	add	r18, r28
     88e:	3d 1f       	adc	r19, r29
     890:	28 0f       	add	r18, r24
     892:	39 1f       	adc	r19, r25
     894:	c0 56       	subi	r28, 0x60	; 96
     896:	de 4f       	sbci	r29, 0xFE	; 254
     898:	39 83       	std	Y+1, r19	; 0x01
     89a:	28 83       	st	Y, r18
     89c:	c0 5a       	subi	r28, 0xA0	; 160
     89e:	d1 40       	sbci	r29, 0x01	; 1
     8a0:	60 c0       	rjmp	.+192    	; 0x962 <__stack+0x463>
				for (j = 0; j < 18; j++){
					for (i = 0; i < 5; i++){
						if(select_menu==k){
     8a2:	48 14       	cp	r4, r8
     8a4:	59 04       	cpc	r5, r9
     8a6:	d1 f4       	brne	.+52     	; 0x8dc <__stack+0x3dd>
							oled_set_column(i+(j*5));
     8a8:	c8 01       	movw	r24, r16
     8aa:	8e 0d       	add	r24, r14
     8ac:	9f 1d       	adc	r25, r15
     8ae:	0e 94 fb 08 	call	0x11f6	; 0x11f6 <oled_set_column>
							write_d(~pgm_read_byte(&font5[team[k][j] - ' '][i]));
     8b2:	f5 01       	movw	r30, r10
     8b4:	80 81       	ld	r24, Z
     8b6:	90 e0       	ldi	r25, 0x00	; 0
     8b8:	80 97       	sbiw	r24, 0x20	; 32
     8ba:	9c 01       	movw	r18, r24
     8bc:	22 0f       	add	r18, r18
     8be:	33 1f       	adc	r19, r19
     8c0:	22 0f       	add	r18, r18
     8c2:	33 1f       	adc	r19, r19
     8c4:	82 0f       	add	r24, r18
     8c6:	93 1f       	adc	r25, r19
     8c8:	fc 01       	movw	r30, r24
     8ca:	e0 0f       	add	r30, r16
     8cc:	f1 1f       	adc	r31, r17
     8ce:	ea 57       	subi	r30, 0x7A	; 122
     8d0:	ff 4f       	sbci	r31, 0xFF	; 255
     8d2:	84 91       	lpm	r24, Z
     8d4:	80 95       	com	r24
     8d6:	0e 94 ca 08 	call	0x1194	; 0x1194 <write_d>
     8da:	17 c0       	rjmp	.+46     	; 0x90a <__stack+0x40b>
						}
						else{
							oled_set_column(i+(j*5));
     8dc:	c7 01       	movw	r24, r14
     8de:	80 0f       	add	r24, r16
     8e0:	91 1f       	adc	r25, r17
     8e2:	0e 94 fb 08 	call	0x11f6	; 0x11f6 <oled_set_column>
							write_d(pgm_read_byte(&font5[team[k][j] - ' '][i]));
     8e6:	f6 01       	movw	r30, r12
     8e8:	80 81       	ld	r24, Z
     8ea:	90 e0       	ldi	r25, 0x00	; 0
     8ec:	80 97       	sbiw	r24, 0x20	; 32
     8ee:	fc 01       	movw	r30, r24
     8f0:	ee 0f       	add	r30, r30
     8f2:	ff 1f       	adc	r31, r31
     8f4:	ee 0f       	add	r30, r30
     8f6:	ff 1f       	adc	r31, r31
     8f8:	e8 0f       	add	r30, r24
     8fa:	f9 1f       	adc	r31, r25
     8fc:	e0 0f       	add	r30, r16
     8fe:	f1 1f       	adc	r31, r17
     900:	ea 57       	subi	r30, 0x7A	; 122
     902:	ff 4f       	sbci	r31, 0xFF	; 255
     904:	84 91       	lpm	r24, Z
     906:	0e 94 ca 08 	call	0x1194	; 0x1194 <write_d>
			oled_set_column(0);
			oled_set_page(0);
			
			for (k = 0; k < 5; k++){
				for (j = 0; j < 18; j++){
					for (i = 0; i < 5; i++){
     90a:	0f 5f       	subi	r16, 0xFF	; 255
     90c:	1f 4f       	sbci	r17, 0xFF	; 255
     90e:	05 30       	cpi	r16, 0x05	; 5
     910:	11 05       	cpc	r17, r1
     912:	39 f6       	brne	.-114    	; 0x8a2 <__stack+0x3a3>
     914:	f5 e0       	ldi	r31, 0x05	; 5
     916:	ef 0e       	add	r14, r31
     918:	f1 1c       	adc	r15, r1
     91a:	2f ef       	ldi	r18, 0xFF	; 255
     91c:	a2 1a       	sub	r10, r18
     91e:	b2 0a       	sbc	r11, r18
			clear_oled();
			oled_set_column(0);
			oled_set_page(0);
			
			for (k = 0; k < 5; k++){
				for (j = 0; j < 18; j++){
     920:	3a e5       	ldi	r19, 0x5A	; 90
     922:	e3 16       	cp	r14, r19
     924:	f1 04       	cpc	r15, r1
     926:	81 f0       	breq	.+32     	; 0x948 <__stack+0x449>
     928:	65 01       	movw	r12, r10
     92a:	c2 0c       	add	r12, r2
     92c:	d3 1c       	adc	r13, r3
     92e:	c6 0c       	add	r12, r6
     930:	d7 1c       	adc	r13, r7
			if(x_volt > 150){
				if (select_menu == 1){	//German
					team_chosen = 0;
				}
				if (select_menu == 2){	//allied
					team_chosen = 1;
     932:	cd 55       	subi	r28, 0x5D	; 93
     934:	de 4f       	sbci	r29, 0xFE	; 254
     936:	08 81       	ld	r16, Y
     938:	c3 5a       	subi	r28, 0xA3	; 163
     93a:	d1 40       	sbci	r29, 0x01	; 1
     93c:	cc 55       	subi	r28, 0x5C	; 92
     93e:	de 4f       	sbci	r29, 0xFE	; 254
     940:	18 81       	ld	r17, Y
     942:	c4 5a       	subi	r28, 0xA4	; 164
     944:	d1 40       	sbci	r29, 0x01	; 1
     946:	ad cf       	rjmp	.-166    	; 0x8a2 <__stack+0x3a3>
							oled_set_column(i+(j*5));
							write_d(pgm_read_byte(&font5[team[k][j] - ' '][i]));
						}
					}
				}
				oled_set_page(k+1);
     948:	4f ef       	ldi	r20, 0xFF	; 255
     94a:	84 1a       	sub	r8, r20
     94c:	94 0a       	sbc	r9, r20
     94e:	c4 01       	movw	r24, r8
     950:	0e 94 05 09 	call	0x120a	; 0x120a <oled_set_page>
     954:	84 e1       	ldi	r24, 0x14	; 20
     956:	68 0e       	add	r6, r24
     958:	71 1c       	adc	r7, r1
			
			clear_oled();
			oled_set_column(0);
			oled_set_page(0);
			
			for (k = 0; k < 5; k++){
     95a:	95 e0       	ldi	r25, 0x05	; 5
     95c:	89 16       	cp	r8, r25
     95e:	91 04       	cpc	r9, r1
     960:	89 f0       	breq	.+34     	; 0x984 <__stack+0x485>
     962:	c0 56       	subi	r28, 0x60	; 96
     964:	de 4f       	sbci	r29, 0xFE	; 254
     966:	a8 80       	ld	r10, Y
     968:	b9 80       	ldd	r11, Y+1	; 0x01
     96a:	c0 5a       	subi	r28, 0xA0	; 160
     96c:	d1 40       	sbci	r29, 0x01	; 1
			if(x_volt > 150){
				if (select_menu == 1){	//German
					team_chosen = 0;
				}
				if (select_menu == 2){	//allied
					team_chosen = 1;
     96e:	c4 55       	subi	r28, 0x54	; 84
     970:	de 4f       	sbci	r29, 0xFE	; 254
     972:	e8 80       	ld	r14, Y
     974:	cc 5a       	subi	r28, 0xAC	; 172
     976:	d1 40       	sbci	r29, 0x01	; 1
     978:	c3 55       	subi	r28, 0x53	; 83
     97a:	de 4f       	sbci	r29, 0xFE	; 254
     97c:	f8 80       	ld	r15, Y
     97e:	cd 5a       	subi	r28, 0xAD	; 173
     980:	d1 40       	sbci	r29, 0x01	; 1
     982:	d2 cf       	rjmp	.-92     	; 0x928 <__stack+0x429>
     984:	ef ef       	ldi	r30, 0xFF	; 255
     986:	ff e7       	ldi	r31, 0x7F	; 127
     988:	27 e0       	ldi	r18, 0x07	; 7
     98a:	e1 50       	subi	r30, 0x01	; 1
     98c:	f0 40       	sbci	r31, 0x00	; 0
     98e:	20 40       	sbci	r18, 0x00	; 0
     990:	e1 f7       	brne	.-8      	; 0x98a <__stack+0x48b>
     992:	00 c0       	rjmp	.+0      	; 0x994 <__stack+0x495>
     994:	00 00       	nop
     996:	f3 ce       	rjmp	.-538    	; 0x77e <__stack+0x27f>
	can_message.data[2] = 10;
	
	CAN_message_send(can_message);
	
	while(1){
		select_menu = 1;  // setting the menu to the first choice every time
     998:	44 24       	eor	r4, r4
     99a:	43 94       	inc	r4
     99c:	51 2c       	mov	r5, r1
		}
		

		while (sub_menu == 3){ 	//Gamemodes menu

			unsigned int x_volt = read_adc(ADC_CHANNEL_JOY_X);
     99e:	85 e0       	ldi	r24, 0x05	; 5
     9a0:	90 e0       	ldi	r25, 0x00	; 0
     9a2:	0e 94 50 01 	call	0x2a0	; 0x2a0 <read_adc>
     9a6:	08 2f       	mov	r16, r24
     9a8:	10 e0       	ldi	r17, 0x00	; 0
			unsigned int y_volt = read_adc(ADC_CHANNEL_JOY_Y);
     9aa:	84 e0       	ldi	r24, 0x04	; 4
     9ac:	90 e0       	ldi	r25, 0x00	; 0
     9ae:	0e 94 50 01 	call	0x2a0	; 0x2a0 <read_adc>
     9b2:	90 e0       	ldi	r25, 0x00	; 0

			
			if (y_volt < 125 && select_menu < 3){
     9b4:	8d 37       	cpi	r24, 0x7D	; 125
     9b6:	91 05       	cpc	r25, r1
     9b8:	38 f4       	brcc	.+14     	; 0x9c8 <__stack+0x4c9>
     9ba:	33 e0       	ldi	r19, 0x03	; 3
     9bc:	43 16       	cp	r4, r19
     9be:	51 04       	cpc	r5, r1
     9c0:	1c f4       	brge	.+6      	; 0x9c8 <__stack+0x4c9>
				select_menu++;
     9c2:	4f ef       	ldi	r20, 0xFF	; 255
     9c4:	44 1a       	sub	r4, r20
     9c6:	54 0a       	sbc	r5, r20
			}
			if (y_volt > 135 && select_menu > 1){
     9c8:	88 38       	cpi	r24, 0x88	; 136
     9ca:	91 05       	cpc	r25, r1
     9cc:	38 f0       	brcs	.+14     	; 0x9dc <__stack+0x4dd>
     9ce:	82 e0       	ldi	r24, 0x02	; 2
     9d0:	48 16       	cp	r4, r24
     9d2:	51 04       	cpc	r5, r1
     9d4:	1c f0       	brlt	.+6      	; 0x9dc <__stack+0x4dd>
				select_menu--;
     9d6:	91 e0       	ldi	r25, 0x01	; 1
     9d8:	49 1a       	sub	r4, r25
     9da:	51 08       	sbc	r5, r1
			}
			if(x_volt < 60){
     9dc:	0c 33       	cpi	r16, 0x3C	; 60
     9de:	11 05       	cpc	r17, r1
     9e0:	08 f4       	brcc	.+2      	; 0x9e4 <__stack+0x4e5>
     9e2:	8a c3       	rjmp	.+1812   	; 0x10f8 <__stack+0xbf9>
				sub_menu = 1;
				break;
			}
			if(x_volt > 135){
     9e4:	08 38       	cpi	r16, 0x88	; 136
     9e6:	11 05       	cpc	r17, r1
     9e8:	f0 f0       	brcs	.+60     	; 0xa26 <__stack+0x527>
				if (select_menu == 1){	//normal
     9ea:	e1 e0       	ldi	r30, 0x01	; 1
     9ec:	4e 16       	cp	r4, r30
     9ee:	51 04       	cpc	r5, r1
     9f0:	69 f0       	breq	.+26     	; 0xa0c <__stack+0x50d>
					lives =  10;
					sub_menu = 6;
				}
				if (select_menu == 2){	//hard-mode
     9f2:	f2 e0       	ldi	r31, 0x02	; 2
     9f4:	4f 16       	cp	r4, r31
     9f6:	51 04       	cpc	r5, r1
     9f8:	09 f4       	brne	.+2      	; 0x9fc <__stack+0x4fd>
     9fa:	32 c1       	rjmp	.+612    	; 0xc60 <__stack+0x761>
					lives = 3;
					sub_menu =6;
				}
				if (select_menu == 3){	//dark souls
     9fc:	23 e0       	ldi	r18, 0x03	; 3
     9fe:	42 16       	cp	r4, r18
     a00:	51 04       	cpc	r5, r1
     a02:	09 f4       	brne	.+2      	; 0xa06 <__stack+0x507>
     a04:	7c c3       	rjmp	.+1784   	; 0x10fe <__stack+0xbff>
     a06:	83 e0       	ldi	r24, 0x03	; 3
     a08:	90 e0       	ldi	r25, 0x00	; 0
     a0a:	08 c0       	rjmp	.+16     	; 0xa1c <__stack+0x51d>
				sub_menu = 1;
				break;
			}
			if(x_volt > 135){
				if (select_menu == 1){	//normal
					lives =  10;
     a0c:	3a e0       	ldi	r19, 0x0A	; 10
     a0e:	c8 55       	subi	r28, 0x58	; 88
     a10:	de 4f       	sbci	r29, 0xFE	; 254
     a12:	38 83       	st	Y, r19
     a14:	c8 5a       	subi	r28, 0xA8	; 168
     a16:	d1 40       	sbci	r29, 0x01	; 1
					sub_menu = 6;
     a18:	86 e0       	ldi	r24, 0x06	; 6
     a1a:	90 e0       	ldi	r25, 0x00	; 0
			}
			_delay_ms(delay);
		}
		
		
		while (sub_menu == 4){	//print team chosen
     a1c:	84 30       	cpi	r24, 0x04	; 4
     a1e:	91 05       	cpc	r25, r1
     a20:	09 f4       	brne	.+2      	; 0xa24 <__stack+0x525>
     a22:	bc c0       	rjmp	.+376    	; 0xb9c <__stack+0x69d>
     a24:	25 c1       	rjmp	.+586    	; 0xc70 <__stack+0x771>
				}
				
				break;
			}
			
			clear_oled();
     a26:	0e 94 09 09 	call	0x1212	; 0x1212 <clear_oled>
			oled_set_column(0);
     a2a:	cb 55       	subi	r28, 0x5B	; 91
     a2c:	de 4f       	sbci	r29, 0xFE	; 254
     a2e:	88 81       	ld	r24, Y
     a30:	c5 5a       	subi	r28, 0xA5	; 165
     a32:	d1 40       	sbci	r29, 0x01	; 1
     a34:	ca 55       	subi	r28, 0x5A	; 90
     a36:	de 4f       	sbci	r29, 0xFE	; 254
     a38:	98 81       	ld	r25, Y
     a3a:	c6 5a       	subi	r28, 0xA6	; 166
     a3c:	d1 40       	sbci	r29, 0x01	; 1
     a3e:	0e 94 fb 08 	call	0x11f6	; 0x11f6 <oled_set_column>
			oled_set_page(0);
     a42:	cb 55       	subi	r28, 0x5B	; 91
     a44:	de 4f       	sbci	r29, 0xFE	; 254
     a46:	88 81       	ld	r24, Y
     a48:	c5 5a       	subi	r28, 0xA5	; 165
     a4a:	d1 40       	sbci	r29, 0x01	; 1
     a4c:	ca 55       	subi	r28, 0x5A	; 90
     a4e:	de 4f       	sbci	r29, 0xFE	; 254
     a50:	98 81       	ld	r25, Y
     a52:	c6 5a       	subi	r28, 0xA6	; 166
     a54:	d1 40       	sbci	r29, 0x01	; 1
     a56:	0e 94 05 09 	call	0x120a	; 0x120a <oled_set_page>
     a5a:	4c ee       	ldi	r20, 0xEC	; 236
     a5c:	92 01       	movw	r18, r4
     a5e:	42 03       	mulsu	r20, r18
     a60:	10 01       	movw	r2, r0
     a62:	43 9f       	mul	r20, r19
     a64:	30 0c       	add	r3, r0
     a66:	11 24       	eor	r1, r1
     a68:	cb 55       	subi	r28, 0x5B	; 91
     a6a:	de 4f       	sbci	r29, 0xFE	; 254
     a6c:	68 80       	ld	r6, Y
     a6e:	c5 5a       	subi	r28, 0xA5	; 165
     a70:	d1 40       	sbci	r29, 0x01	; 1
     a72:	ca 55       	subi	r28, 0x5A	; 90
     a74:	de 4f       	sbci	r29, 0xFE	; 254
     a76:	78 80       	ld	r7, Y
     a78:	c6 5a       	subi	r28, 0xA6	; 166
     a7a:	d1 40       	sbci	r29, 0x01	; 1
			
			for (k = 0; k < 4; k++){
     a7c:	86 2c       	mov	r8, r6
     a7e:	97 2c       	mov	r9, r7
     a80:	e4 e1       	ldi	r30, 0x14	; 20
     a82:	e4 9d       	mul	r30, r4
     a84:	c0 01       	movw	r24, r0
     a86:	e5 9d       	mul	r30, r5
     a88:	90 0d       	add	r25, r0
     a8a:	11 24       	eor	r1, r1
     a8c:	25 eb       	ldi	r18, 0xB5	; 181
     a8e:	30 e0       	ldi	r19, 0x00	; 0
     a90:	2c 0f       	add	r18, r28
     a92:	3d 1f       	adc	r19, r29
     a94:	28 0f       	add	r18, r24
     a96:	39 1f       	adc	r19, r25
     a98:	c0 56       	subi	r28, 0x60	; 96
     a9a:	de 4f       	sbci	r29, 0xFE	; 254
     a9c:	39 83       	std	Y+1, r19	; 0x01
     a9e:	28 83       	st	Y, r18
     aa0:	c0 5a       	subi	r28, 0xA0	; 160
     aa2:	d1 40       	sbci	r29, 0x01	; 1
     aa4:	60 c0       	rjmp	.+192    	; 0xb66 <__stack+0x667>
				for (j = 0; j < 13; j++){
					for (i = 0; i < 5; i++)	{
						if(select_menu==k)		{
     aa6:	48 14       	cp	r4, r8
     aa8:	59 04       	cpc	r5, r9
     aaa:	d1 f4       	brne	.+52     	; 0xae0 <__stack+0x5e1>
							oled_set_column(i+(j*5));
     aac:	c7 01       	movw	r24, r14
     aae:	80 0f       	add	r24, r16
     ab0:	91 1f       	adc	r25, r17
     ab2:	0e 94 fb 08 	call	0x11f6	; 0x11f6 <oled_set_column>
							write_d(~pgm_read_byte(&font5[games[k][j] - ' '][i]));
     ab6:	f5 01       	movw	r30, r10
     ab8:	80 81       	ld	r24, Z
     aba:	90 e0       	ldi	r25, 0x00	; 0
     abc:	80 97       	sbiw	r24, 0x20	; 32
     abe:	9c 01       	movw	r18, r24
     ac0:	22 0f       	add	r18, r18
     ac2:	33 1f       	adc	r19, r19
     ac4:	22 0f       	add	r18, r18
     ac6:	33 1f       	adc	r19, r19
     ac8:	82 0f       	add	r24, r18
     aca:	93 1f       	adc	r25, r19
     acc:	fc 01       	movw	r30, r24
     ace:	e0 0f       	add	r30, r16
     ad0:	f1 1f       	adc	r31, r17
     ad2:	ea 57       	subi	r30, 0x7A	; 122
     ad4:	ff 4f       	sbci	r31, 0xFF	; 255
     ad6:	84 91       	lpm	r24, Z
     ad8:	80 95       	com	r24
     ada:	0e 94 ca 08 	call	0x1194	; 0x1194 <write_d>
     ade:	17 c0       	rjmp	.+46     	; 0xb0e <__stack+0x60f>
						}
						else{
							oled_set_column(i+(j*5));
     ae0:	c7 01       	movw	r24, r14
     ae2:	80 0f       	add	r24, r16
     ae4:	91 1f       	adc	r25, r17
     ae6:	0e 94 fb 08 	call	0x11f6	; 0x11f6 <oled_set_column>
							write_d(pgm_read_byte(&font5[games[k][j] - ' '][i]));
     aea:	f6 01       	movw	r30, r12
     aec:	80 81       	ld	r24, Z
     aee:	90 e0       	ldi	r25, 0x00	; 0
     af0:	80 97       	sbiw	r24, 0x20	; 32
     af2:	fc 01       	movw	r30, r24
     af4:	ee 0f       	add	r30, r30
     af6:	ff 1f       	adc	r31, r31
     af8:	ee 0f       	add	r30, r30
     afa:	ff 1f       	adc	r31, r31
     afc:	e8 0f       	add	r30, r24
     afe:	f9 1f       	adc	r31, r25
     b00:	e0 0f       	add	r30, r16
     b02:	f1 1f       	adc	r31, r17
     b04:	ea 57       	subi	r30, 0x7A	; 122
     b06:	ff 4f       	sbci	r31, 0xFF	; 255
     b08:	84 91       	lpm	r24, Z
     b0a:	0e 94 ca 08 	call	0x1194	; 0x1194 <write_d>
			oled_set_column(0);
			oled_set_page(0);
			
			for (k = 0; k < 4; k++){
				for (j = 0; j < 13; j++){
					for (i = 0; i < 5; i++)	{
     b0e:	0f 5f       	subi	r16, 0xFF	; 255
     b10:	1f 4f       	sbci	r17, 0xFF	; 255
     b12:	05 30       	cpi	r16, 0x05	; 5
     b14:	11 05       	cpc	r17, r1
     b16:	39 f6       	brne	.-114    	; 0xaa6 <__stack+0x5a7>
     b18:	f5 e0       	ldi	r31, 0x05	; 5
     b1a:	ef 0e       	add	r14, r31
     b1c:	f1 1c       	adc	r15, r1
     b1e:	2f ef       	ldi	r18, 0xFF	; 255
     b20:	a2 1a       	sub	r10, r18
     b22:	b2 0a       	sbc	r11, r18
			clear_oled();
			oled_set_column(0);
			oled_set_page(0);
			
			for (k = 0; k < 4; k++){
				for (j = 0; j < 13; j++){
     b24:	31 e4       	ldi	r19, 0x41	; 65
     b26:	e3 16       	cp	r14, r19
     b28:	f1 04       	cpc	r15, r1
     b2a:	81 f0       	breq	.+32     	; 0xb4c <__stack+0x64d>
     b2c:	65 01       	movw	r12, r10
     b2e:	c2 0c       	add	r12, r2
     b30:	d3 1c       	adc	r13, r3
     b32:	c6 0c       	add	r12, r6
     b34:	d7 1c       	adc	r13, r7
     b36:	cd 55       	subi	r28, 0x5D	; 93
     b38:	de 4f       	sbci	r29, 0xFE	; 254
     b3a:	08 81       	ld	r16, Y
     b3c:	c3 5a       	subi	r28, 0xA3	; 163
     b3e:	d1 40       	sbci	r29, 0x01	; 1
     b40:	cc 55       	subi	r28, 0x5C	; 92
     b42:	de 4f       	sbci	r29, 0xFE	; 254
     b44:	18 81       	ld	r17, Y
     b46:	c4 5a       	subi	r28, 0xA4	; 164
     b48:	d1 40       	sbci	r29, 0x01	; 1
     b4a:	ad cf       	rjmp	.-166    	; 0xaa6 <__stack+0x5a7>
							oled_set_column(i+(j*5));
							write_d(pgm_read_byte(&font5[games[k][j] - ' '][i]));
						}
					}
				}
				oled_set_page(k+1);
     b4c:	4f ef       	ldi	r20, 0xFF	; 255
     b4e:	84 1a       	sub	r8, r20
     b50:	94 0a       	sbc	r9, r20
     b52:	c4 01       	movw	r24, r8
     b54:	0e 94 05 09 	call	0x120a	; 0x120a <oled_set_page>
     b58:	84 e1       	ldi	r24, 0x14	; 20
     b5a:	68 0e       	add	r6, r24
     b5c:	71 1c       	adc	r7, r1
			
			clear_oled();
			oled_set_column(0);
			oled_set_page(0);
			
			for (k = 0; k < 4; k++){
     b5e:	94 e0       	ldi	r25, 0x04	; 4
     b60:	89 16       	cp	r8, r25
     b62:	91 04       	cpc	r9, r1
     b64:	89 f0       	breq	.+34     	; 0xb88 <__stack+0x689>
     b66:	c0 56       	subi	r28, 0x60	; 96
     b68:	de 4f       	sbci	r29, 0xFE	; 254
     b6a:	a8 80       	ld	r10, Y
     b6c:	b9 80       	ldd	r11, Y+1	; 0x01
     b6e:	c0 5a       	subi	r28, 0xA0	; 160
     b70:	d1 40       	sbci	r29, 0x01	; 1
     b72:	c4 55       	subi	r28, 0x54	; 84
     b74:	de 4f       	sbci	r29, 0xFE	; 254
     b76:	e8 80       	ld	r14, Y
     b78:	cc 5a       	subi	r28, 0xAC	; 172
     b7a:	d1 40       	sbci	r29, 0x01	; 1
     b7c:	c3 55       	subi	r28, 0x53	; 83
     b7e:	de 4f       	sbci	r29, 0xFE	; 254
     b80:	f8 80       	ld	r15, Y
     b82:	cd 5a       	subi	r28, 0xAD	; 173
     b84:	d1 40       	sbci	r29, 0x01	; 1
     b86:	d2 cf       	rjmp	.-92     	; 0xb2c <__stack+0x62d>
     b88:	ef ef       	ldi	r30, 0xFF	; 255
     b8a:	ff e7       	ldi	r31, 0x7F	; 127
     b8c:	27 e0       	ldi	r18, 0x07	; 7
     b8e:	e1 50       	subi	r30, 0x01	; 1
     b90:	f0 40       	sbci	r31, 0x00	; 0
     b92:	20 40       	sbci	r18, 0x00	; 0
     b94:	e1 f7       	brne	.-8      	; 0xb8e <__stack+0x68f>
     b96:	00 c0       	rjmp	.+0      	; 0xb98 <__stack+0x699>
     b98:	00 00       	nop
     b9a:	01 cf       	rjmp	.-510    	; 0x99e <__stack+0x49f>
		}
		
		
		while (sub_menu == 4){	//print team chosen

			clear_oled();
     b9c:	0e 94 09 09 	call	0x1212	; 0x1212 <clear_oled>
			oled_set_column(0);
     ba0:	80 e0       	ldi	r24, 0x00	; 0
     ba2:	90 e0       	ldi	r25, 0x00	; 0
     ba4:	0e 94 fb 08 	call	0x11f6	; 0x11f6 <oled_set_column>
			oled_set_page(0);
     ba8:	80 e0       	ldi	r24, 0x00	; 0
     baa:	90 e0       	ldi	r25, 0x00	; 0
     bac:	0e 94 05 09 	call	0x120a	; 0x120a <oled_set_page>
     bb0:	86 e1       	ldi	r24, 0x16	; 22
     bb2:	c2 55       	subi	r28, 0x52	; 82
     bb4:	de 4f       	sbci	r29, 0xFE	; 254
     bb6:	e8 81       	ld	r30, Y
     bb8:	f9 81       	ldd	r31, Y+1	; 0x01
     bba:	ce 5a       	subi	r28, 0xAE	; 174
     bbc:	d1 40       	sbci	r29, 0x01	; 1
     bbe:	8e 9f       	mul	r24, r30
     bc0:	60 01       	movw	r12, r0
     bc2:	8f 9f       	mul	r24, r31
     bc4:	d0 0c       	add	r13, r0
     bc6:	11 24       	eor	r1, r1
     bc8:	25 e0       	ldi	r18, 0x05	; 5
     bca:	31 e0       	ldi	r19, 0x01	; 1
     bcc:	2c 0f       	add	r18, r28
     bce:	3d 1f       	adc	r19, r29
     bd0:	c2 0e       	add	r12, r18
     bd2:	d3 1e       	adc	r13, r19
     bd4:	e1 2c       	mov	r14, r1
     bd6:	f1 2c       	mov	r15, r1
     bd8:	cb 55       	subi	r28, 0x5B	; 91
     bda:	de 4f       	sbci	r29, 0xFE	; 254
     bdc:	b8 80       	ld	r11, Y
     bde:	c5 5a       	subi	r28, 0xA5	; 165
     be0:	d1 40       	sbci	r29, 0x01	; 1
     be2:	ca 55       	subi	r28, 0x5A	; 90
     be4:	de 4f       	sbci	r29, 0xFE	; 254
     be6:	a8 80       	ld	r10, Y
     be8:	c6 5a       	subi	r28, 0xA6	; 166
     bea:	d1 40       	sbci	r29, 0x01	; 1
     bec:	26 c0       	rjmp	.+76     	; 0xc3a <__stack+0x73b>
			
			for (k = 0; k < 1; k++){
				for (j = 0; j < 20; j++){
					for (i = 0; i < 5; i++){
						oled_set_column(i+(j*5));
     bee:	c7 01       	movw	r24, r14
     bf0:	80 0f       	add	r24, r16
     bf2:	91 1f       	adc	r25, r17
     bf4:	0e 94 fb 08 	call	0x11f6	; 0x11f6 <oled_set_column>
						write_d(pgm_read_byte(&font5[team_print[team_chosen][j] - ' '][i]));
     bf8:	f6 01       	movw	r30, r12
     bfa:	80 81       	ld	r24, Z
     bfc:	90 e0       	ldi	r25, 0x00	; 0
     bfe:	80 97       	sbiw	r24, 0x20	; 32
     c00:	fc 01       	movw	r30, r24
     c02:	ee 0f       	add	r30, r30
     c04:	ff 1f       	adc	r31, r31
     c06:	ee 0f       	add	r30, r30
     c08:	ff 1f       	adc	r31, r31
     c0a:	e8 0f       	add	r30, r24
     c0c:	f9 1f       	adc	r31, r25
     c0e:	e0 0f       	add	r30, r16
     c10:	f1 1f       	adc	r31, r17
     c12:	ea 57       	subi	r30, 0x7A	; 122
     c14:	ff 4f       	sbci	r31, 0xFF	; 255
     c16:	84 91       	lpm	r24, Z
     c18:	0e 94 ca 08 	call	0x1194	; 0x1194 <write_d>
			oled_set_column(0);
			oled_set_page(0);
			
			for (k = 0; k < 1; k++){
				for (j = 0; j < 20; j++){
					for (i = 0; i < 5; i++){
     c1c:	0f 5f       	subi	r16, 0xFF	; 255
     c1e:	1f 4f       	sbci	r17, 0xFF	; 255
     c20:	05 30       	cpi	r16, 0x05	; 5
     c22:	11 05       	cpc	r17, r1
     c24:	21 f7       	brne	.-56     	; 0xbee <__stack+0x6ef>
     c26:	f5 e0       	ldi	r31, 0x05	; 5
     c28:	ef 0e       	add	r14, r31
     c2a:	f1 1c       	adc	r15, r1
     c2c:	2f ef       	ldi	r18, 0xFF	; 255
     c2e:	c2 1a       	sub	r12, r18
     c30:	d2 0a       	sbc	r13, r18
			clear_oled();
			oled_set_column(0);
			oled_set_page(0);
			
			for (k = 0; k < 1; k++){
				for (j = 0; j < 20; j++){
     c32:	34 e6       	ldi	r19, 0x64	; 100
     c34:	e3 16       	cp	r14, r19
     c36:	f1 04       	cpc	r15, r1
     c38:	19 f0       	breq	.+6      	; 0xc40 <__stack+0x741>
			
			clear_oled();
			oled_set_column(0);
			oled_set_page(0);
			
			for (k = 0; k < 4; k++){
     c3a:	0b 2d       	mov	r16, r11
     c3c:	1a 2d       	mov	r17, r10
     c3e:	d7 cf       	rjmp	.-82     	; 0xbee <__stack+0x6ef>
						oled_set_column(i+(j*5));
						write_d(pgm_read_byte(&font5[team_print[team_chosen][j] - ' '][i]));
						
					}
				}
				oled_set_page(k+1);
     c40:	81 e0       	ldi	r24, 0x01	; 1
     c42:	90 e0       	ldi	r25, 0x00	; 0
     c44:	0e 94 05 09 	call	0x120a	; 0x120a <oled_set_page>
     c48:	4f ef       	ldi	r20, 0xFF	; 255
     c4a:	8f e7       	ldi	r24, 0x7F	; 127
     c4c:	95 e2       	ldi	r25, 0x25	; 37
     c4e:	41 50       	subi	r20, 0x01	; 1
     c50:	80 40       	sbci	r24, 0x00	; 0
     c52:	90 40       	sbci	r25, 0x00	; 0
     c54:	e1 f7       	brne	.-8      	; 0xc4e <__stack+0x74f>
     c56:	00 c0       	rjmp	.+0      	; 0xc58 <__stack+0x759>
     c58:	00 00       	nop
			}
			sub_menu = 1;
     c5a:	81 e0       	ldi	r24, 0x01	; 1
     c5c:	90 e0       	ldi	r25, 0x00	; 0
     c5e:	8a cc       	rjmp	.-1772   	; 0x574 <__stack+0x75>
				if (select_menu == 1){	//normal
					lives =  10;
					sub_menu = 6;
				}
				if (select_menu == 2){	//hard-mode
					lives = 3;
     c60:	e3 e0       	ldi	r30, 0x03	; 3
     c62:	c8 55       	subi	r28, 0x58	; 88
     c64:	de 4f       	sbci	r29, 0xFE	; 254
     c66:	e8 83       	st	Y, r30
     c68:	c8 5a       	subi	r28, 0xA8	; 168
     c6a:	d1 40       	sbci	r29, 0x01	; 1
					sub_menu =6;
     c6c:	86 e0       	ldi	r24, 0x06	; 6
     c6e:	90 e0       	ldi	r25, 0x00	; 0
			}
			sub_menu = 1;
			_delay_ms(delay*5);
		}
		
		while(sub_menu==5){    // game over
     c70:	85 30       	cpi	r24, 0x05	; 5
     c72:	91 05       	cpc	r25, r1
     c74:	09 f0       	breq	.+2      	; 0xc78 <__stack+0x779>
     c76:	51 c0       	rjmp	.+162    	; 0xd1a <__stack+0x81b>
			clear_oled();
     c78:	0e 94 09 09 	call	0x1212	; 0x1212 <clear_oled>
			oled_set_column(0);
     c7c:	80 e0       	ldi	r24, 0x00	; 0
     c7e:	90 e0       	ldi	r25, 0x00	; 0
     c80:	0e 94 fb 08 	call	0x11f6	; 0x11f6 <oled_set_column>
			oled_set_page(3);
     c84:	83 e0       	ldi	r24, 0x03	; 3
     c86:	90 e0       	ldi	r25, 0x00	; 0
     c88:	0e 94 05 09 	call	0x120a	; 0x120a <oled_set_page>
     c8c:	6e 01       	movw	r12, r28
     c8e:	f3 ea       	ldi	r31, 0xA3	; 163
     c90:	cf 1a       	sub	r12, r31
     c92:	fe ef       	ldi	r31, 0xFE	; 254
     c94:	df 0a       	sbc	r13, r31
     c96:	e1 2c       	mov	r14, r1
     c98:	f1 2c       	mov	r15, r1
     c9a:	cb 55       	subi	r28, 0x5B	; 91
     c9c:	de 4f       	sbci	r29, 0xFE	; 254
     c9e:	b8 80       	ld	r11, Y
     ca0:	c5 5a       	subi	r28, 0xA5	; 165
     ca2:	d1 40       	sbci	r29, 0x01	; 1
     ca4:	ca 55       	subi	r28, 0x5A	; 90
     ca6:	de 4f       	sbci	r29, 0xFE	; 254
     ca8:	a8 80       	ld	r10, Y
     caa:	c6 5a       	subi	r28, 0xA6	; 166
     cac:	d1 40       	sbci	r29, 0x01	; 1
     cae:	26 c0       	rjmp	.+76     	; 0xcfc <__stack+0x7fd>
			
			for (j = 0; j < 22; j++){
				for (i = 0; i < 5; i++)	{
					oled_set_column(i+(j*5));
     cb0:	c7 01       	movw	r24, r14
     cb2:	80 0f       	add	r24, r16
     cb4:	91 1f       	adc	r25, r17
     cb6:	0e 94 fb 08 	call	0x11f6	; 0x11f6 <oled_set_column>
					write_d(pgm_read_byte(&font5[game_over[0][j] - ' '][i]));	
     cba:	f6 01       	movw	r30, r12
     cbc:	80 81       	ld	r24, Z
     cbe:	90 e0       	ldi	r25, 0x00	; 0
     cc0:	80 97       	sbiw	r24, 0x20	; 32
     cc2:	fc 01       	movw	r30, r24
     cc4:	ee 0f       	add	r30, r30
     cc6:	ff 1f       	adc	r31, r31
     cc8:	ee 0f       	add	r30, r30
     cca:	ff 1f       	adc	r31, r31
     ccc:	e8 0f       	add	r30, r24
     cce:	f9 1f       	adc	r31, r25
     cd0:	e0 0f       	add	r30, r16
     cd2:	f1 1f       	adc	r31, r17
     cd4:	ea 57       	subi	r30, 0x7A	; 122
     cd6:	ff 4f       	sbci	r31, 0xFF	; 255
     cd8:	84 91       	lpm	r24, Z
     cda:	0e 94 ca 08 	call	0x1194	; 0x1194 <write_d>
			clear_oled();
			oled_set_column(0);
			oled_set_page(3);
			
			for (j = 0; j < 22; j++){
				for (i = 0; i < 5; i++)	{
     cde:	0f 5f       	subi	r16, 0xFF	; 255
     ce0:	1f 4f       	sbci	r17, 0xFF	; 255
     ce2:	05 30       	cpi	r16, 0x05	; 5
     ce4:	11 05       	cpc	r17, r1
     ce6:	21 f7       	brne	.-56     	; 0xcb0 <__stack+0x7b1>
     ce8:	f5 e0       	ldi	r31, 0x05	; 5
     cea:	ef 0e       	add	r14, r31
     cec:	f1 1c       	adc	r15, r1
     cee:	2f ef       	ldi	r18, 0xFF	; 255
     cf0:	c2 1a       	sub	r12, r18
     cf2:	d2 0a       	sbc	r13, r18
		while(sub_menu==5){    // game over
			clear_oled();
			oled_set_column(0);
			oled_set_page(3);
			
			for (j = 0; j < 22; j++){
     cf4:	3e e6       	ldi	r19, 0x6E	; 110
     cf6:	e3 16       	cp	r14, r19
     cf8:	f1 04       	cpc	r15, r1
     cfa:	19 f0       	breq	.+6      	; 0xd02 <__stack+0x803>
					lives =  10;
					sub_menu = 6;
				}
				if (select_menu == 2){	//hard-mode
					lives = 3;
					sub_menu =6;
     cfc:	0b 2d       	mov	r16, r11
     cfe:	1a 2d       	mov	r17, r10
     d00:	d7 cf       	rjmp	.-82     	; 0xcb0 <__stack+0x7b1>
     d02:	4f ef       	ldi	r20, 0xFF	; 255
     d04:	8f ef       	ldi	r24, 0xFF	; 255
     d06:	9a e4       	ldi	r25, 0x4A	; 74
     d08:	41 50       	subi	r20, 0x01	; 1
     d0a:	80 40       	sbci	r24, 0x00	; 0
     d0c:	90 40       	sbci	r25, 0x00	; 0
     d0e:	e1 f7       	brne	.-8      	; 0xd08 <__stack+0x809>
     d10:	00 c0       	rjmp	.+0      	; 0xd12 <__stack+0x813>
     d12:	00 00       	nop
					oled_set_column(i+(j*5));
					write_d(pgm_read_byte(&font5[game_over[0][j] - ' '][i]));	
				}
			}
			_delay_ms(delay*10);
			sub_menu = 1;
     d14:	81 e0       	ldi	r24, 0x01	; 1
     d16:	90 e0       	ldi	r25, 0x00	; 0
     d18:	2d cc       	rjmp	.-1958   	; 0x574 <__stack+0x75>
		}
		
		while(sub_menu==6){		//game on
     d1a:	86 30       	cpi	r24, 0x06	; 6
     d1c:	91 05       	cpc	r25, r1
     d1e:	09 f4       	brne	.+2      	; 0xd22 <__stack+0x823>
     d20:	ab c1       	rjmp	.+854    	; 0x1078 <__stack+0xb79>
     d22:	28 cc       	rjmp	.-1968   	; 0x574 <__stack+0x75>
				bool button_left = (PINB & (1 << PB0));
				bool button_right = (PINB & (1 << PB1));
				
				
				bool joystick_pressed = val_joystick;		//Ettersom det i utgangspunktet returneres '0' når Joysticken trykkes, implementerer vi den simple koden nedenfor, slik at vi får '1' når Joysticken trykkes på.
				val_joystick = (PINB & (1 << PB2));
     d24:	c7 55       	subi	r28, 0x57	; 87
     d26:	de 4f       	sbci	r29, 0xFE	; 254
     d28:	b8 82       	st	Y, r11
     d2a:	c9 5a       	subi	r28, 0xA9	; 169
     d2c:	d1 40       	sbci	r29, 0x01	; 1
			// --starte en timer kanksje--
			lives_tot = lives;
	
			while(lives>0){
				
				msg *message = (msg*)malloc(sizeof(msg));
     d2e:	8b e0       	ldi	r24, 0x0B	; 11
     d30:	90 e0       	ldi	r25, 0x00	; 0
     d32:	0e 94 6c 09 	call	0x12d8	; 0x12d8 <malloc>
     d36:	8c 01       	movw	r16, r24
				
				CAN_data_receive(message);
     d38:	0e 94 d4 01 	call	0x3a8	; 0x3a8 <CAN_data_receive>
				lives = message->data[7];
     d3c:	f8 01       	movw	r30, r16
     d3e:	f2 85       	ldd	r31, Z+10	; 0x0a
     d40:	c9 55       	subi	r28, 0x59	; 89
     d42:	de 4f       	sbci	r29, 0xFE	; 254
     d44:	f8 83       	st	Y, r31
     d46:	c7 5a       	subi	r28, 0xA7	; 167
     d48:	d1 40       	sbci	r29, 0x01	; 1
				
				free(message);
     d4a:	c8 01       	movw	r24, r16
     d4c:	0e 94 04 0a 	call	0x1408	; 0x1408 <free>
				
				clear_oled();
     d50:	0e 94 09 09 	call	0x1212	; 0x1212 <clear_oled>
				oled_set_column(0);
     d54:	cb 55       	subi	r28, 0x5B	; 91
     d56:	de 4f       	sbci	r29, 0xFE	; 254
     d58:	88 81       	ld	r24, Y
     d5a:	c5 5a       	subi	r28, 0xA5	; 165
     d5c:	d1 40       	sbci	r29, 0x01	; 1
     d5e:	ca 55       	subi	r28, 0x5A	; 90
     d60:	de 4f       	sbci	r29, 0xFE	; 254
     d62:	98 81       	ld	r25, Y
     d64:	c6 5a       	subi	r28, 0xA6	; 166
     d66:	d1 40       	sbci	r29, 0x01	; 1
     d68:	0e 94 fb 08 	call	0x11f6	; 0x11f6 <oled_set_column>
				oled_set_page(0);
     d6c:	cb 55       	subi	r28, 0x5B	; 91
     d6e:	de 4f       	sbci	r29, 0xFE	; 254
     d70:	88 81       	ld	r24, Y
     d72:	c5 5a       	subi	r28, 0xA5	; 165
     d74:	d1 40       	sbci	r29, 0x01	; 1
     d76:	ca 55       	subi	r28, 0x5A	; 90
     d78:	de 4f       	sbci	r29, 0xFE	; 254
     d7a:	98 81       	ld	r25, Y
     d7c:	c6 5a       	subi	r28, 0xA6	; 166
     d7e:	d1 40       	sbci	r29, 0x01	; 1
     d80:	0e 94 05 09 	call	0x120a	; 0x120a <oled_set_page>
     d84:	9e 01       	movw	r18, r28
     d86:	2a 58       	subi	r18, 0x8A	; 138
     d88:	3e 4f       	sbci	r19, 0xFE	; 254
     d8a:	69 01       	movw	r12, r18
     d8c:	cb 55       	subi	r28, 0x5B	; 91
     d8e:	de 4f       	sbci	r29, 0xFE	; 254
     d90:	e8 80       	ld	r14, Y
     d92:	c5 5a       	subi	r28, 0xA5	; 165
     d94:	d1 40       	sbci	r29, 0x01	; 1
     d96:	ca 55       	subi	r28, 0x5A	; 90
     d98:	de 4f       	sbci	r29, 0xFE	; 254
     d9a:	f8 80       	ld	r15, Y
     d9c:	c6 5a       	subi	r28, 0xA6	; 166
     d9e:	d1 40       	sbci	r29, 0x01	; 1
     da0:	c4 55       	subi	r28, 0x54	; 84
     da2:	de 4f       	sbci	r29, 0xFE	; 254
     da4:	38 80       	ld	r3, Y
     da6:	cc 5a       	subi	r28, 0xAC	; 172
     da8:	d1 40       	sbci	r29, 0x01	; 1
     daa:	c3 55       	subi	r28, 0x53	; 83
     dac:	de 4f       	sbci	r29, 0xFE	; 254
     dae:	28 80       	ld	r2, Y
     db0:	cd 5a       	subi	r28, 0xAD	; 173
     db2:	d1 40       	sbci	r29, 0x01	; 1
     db4:	26 c0       	rjmp	.+76     	; 0xe02 <__stack+0x903>
				
				for (j = 0; j < 17; j++){
					for (i = 0; i < 5; i++){
						oled_set_column(i+(j*5));
     db6:	c7 01       	movw	r24, r14
     db8:	80 0f       	add	r24, r16
     dba:	91 1f       	adc	r25, r17
     dbc:	0e 94 fb 08 	call	0x11f6	; 0x11f6 <oled_set_column>
						write_d(pgm_read_byte(&font5[gameOn[0][j] - ' '][i]));
     dc0:	f6 01       	movw	r30, r12
     dc2:	80 81       	ld	r24, Z
     dc4:	90 e0       	ldi	r25, 0x00	; 0
     dc6:	80 97       	sbiw	r24, 0x20	; 32
     dc8:	fc 01       	movw	r30, r24
     dca:	ee 0f       	add	r30, r30
     dcc:	ff 1f       	adc	r31, r31
     dce:	ee 0f       	add	r30, r30
     dd0:	ff 1f       	adc	r31, r31
     dd2:	e8 0f       	add	r30, r24
     dd4:	f9 1f       	adc	r31, r25
     dd6:	e0 0f       	add	r30, r16
     dd8:	f1 1f       	adc	r31, r17
     dda:	ea 57       	subi	r30, 0x7A	; 122
     ddc:	ff 4f       	sbci	r31, 0xFF	; 255
     dde:	84 91       	lpm	r24, Z
     de0:	0e 94 ca 08 	call	0x1194	; 0x1194 <write_d>
				clear_oled();
				oled_set_column(0);
				oled_set_page(0);
				
				for (j = 0; j < 17; j++){
					for (i = 0; i < 5; i++){
     de4:	0f 5f       	subi	r16, 0xFF	; 255
     de6:	1f 4f       	sbci	r17, 0xFF	; 255
     de8:	05 30       	cpi	r16, 0x05	; 5
     dea:	11 05       	cpc	r17, r1
     dec:	21 f7       	brne	.-56     	; 0xdb6 <__stack+0x8b7>
     dee:	f5 e0       	ldi	r31, 0x05	; 5
     df0:	ef 0e       	add	r14, r31
     df2:	f1 1c       	adc	r15, r1
     df4:	2f ef       	ldi	r18, 0xFF	; 255
     df6:	c2 1a       	sub	r12, r18
     df8:	d2 0a       	sbc	r13, r18
				
				clear_oled();
				oled_set_column(0);
				oled_set_page(0);
				
				for (j = 0; j < 17; j++){
     dfa:	35 e5       	ldi	r19, 0x55	; 85
     dfc:	e3 16       	cp	r14, r19
     dfe:	f1 04       	cpc	r15, r1
     e00:	19 f0       	breq	.+6      	; 0xe08 <__stack+0x909>
				bool button_left = (PINB & (1 << PB0));
				bool button_right = (PINB & (1 << PB1));
				
				
				bool joystick_pressed = val_joystick;		//Ettersom det i utgangspunktet returneres '0' når Joysticken trykkes, implementerer vi den simple koden nedenfor, slik at vi får '1' når Joysticken trykkes på.
				val_joystick = (PINB & (1 << PB2));
     e02:	03 2d       	mov	r16, r3
     e04:	12 2d       	mov	r17, r2
     e06:	d7 cf       	rjmp	.-82     	; 0xdb6 <__stack+0x8b7>
					}
				}

			
			
				oled_set_page(4);
     e08:	84 e0       	ldi	r24, 0x04	; 4
     e0a:	90 e0       	ldi	r25, 0x00	; 0
     e0c:	0e 94 05 09 	call	0x120a	; 0x120a <oled_set_page>
					
				for(k = 0; k < lives_tot; k++){
     e10:	c6 55       	subi	r28, 0x56	; 86
     e12:	de 4f       	sbci	r29, 0xFE	; 254
     e14:	88 81       	ld	r24, Y
     e16:	99 81       	ldd	r25, Y+1	; 0x01
     e18:	ca 5a       	subi	r28, 0xAA	; 170
     e1a:	d1 40       	sbci	r29, 0x01	; 1
     e1c:	18 16       	cp	r1, r24
     e1e:	19 06       	cpc	r1, r25
     e20:	0c f0       	brlt	.+2      	; 0xe24 <__stack+0x925>
     e22:	4d c0       	rjmp	.+154    	; 0xebe <__stack+0x9bf>
     e24:	cb 55       	subi	r28, 0x5B	; 91
     e26:	de 4f       	sbci	r29, 0xFE	; 254
     e28:	88 80       	ld	r8, Y
     e2a:	c5 5a       	subi	r28, 0xA5	; 165
     e2c:	d1 40       	sbci	r29, 0x01	; 1
     e2e:	ca 55       	subi	r28, 0x5A	; 90
     e30:	de 4f       	sbci	r29, 0xFE	; 254
     e32:	98 80       	ld	r9, Y
     e34:	c6 5a       	subi	r28, 0xA6	; 166
     e36:	d1 40       	sbci	r29, 0x01	; 1
     e38:	e8 2c       	mov	r14, r8
     e3a:	f9 2c       	mov	r15, r9
					for (i = 0; i < 11; i++){
						if(lives <= k ){
     e3c:	c9 55       	subi	r28, 0x59	; 89
     e3e:	de 4f       	sbci	r29, 0xFE	; 254
     e40:	98 81       	ld	r25, Y
     e42:	c7 5a       	subi	r28, 0xA7	; 167
     e44:	d1 40       	sbci	r29, 0x01	; 1
     e46:	a9 2e       	mov	r10, r25
     e48:	b1 2c       	mov	r11, r1
     e4a:	c6 55       	subi	r28, 0x56	; 86
     e4c:	de 4f       	sbci	r29, 0xFE	; 254
     e4e:	28 80       	ld	r2, Y
     e50:	39 80       	ldd	r3, Y+1	; 0x01
     e52:	ca 5a       	subi	r28, 0xAA	; 170
     e54:	d1 40       	sbci	r29, 0x01	; 1
     e56:	25 c0       	rjmp	.+74     	; 0xea2 <__stack+0x9a3>
     e58:	ea 14       	cp	r14, r10
     e5a:	fb 04       	cpc	r15, r11
     e5c:	54 f0       	brlt	.+20     	; 0xe72 <__stack+0x973>
							oled_set_column(i+(k*11));
     e5e:	c6 01       	movw	r24, r12
     e60:	80 0f       	add	r24, r16
     e62:	91 1f       	adc	r25, r17
     e64:	0e 94 fb 08 	call	0x11f6	; 0x11f6 <oled_set_column>
							write_d(pgm_read_byte(&heart[hearts[0][0] - ' '][i]));
     e68:	f8 01       	movw	r30, r16
     e6a:	84 91       	lpm	r24, Z
     e6c:	0e 94 ca 08 	call	0x1194	; 0x1194 <write_d>
     e70:	0a c0       	rjmp	.+20     	; 0xe86 <__stack+0x987>
						}
						else{
							oled_set_column(i+(k*11));
     e72:	c6 01       	movw	r24, r12
     e74:	80 0f       	add	r24, r16
     e76:	91 1f       	adc	r25, r17
     e78:	0e 94 fb 08 	call	0x11f6	; 0x11f6 <oled_set_column>
     e7c:	f8 01       	movw	r30, r16
     e7e:	3b 96       	adiw	r30, 0x0b	; 11
							write_d(pgm_read_byte(&heart[hearts[1][0] - ' '][i]));
     e80:	84 91       	lpm	r24, Z
     e82:	0e 94 ca 08 	call	0x1194	; 0x1194 <write_d>
     e86:	0f 5f       	subi	r16, 0xFF	; 255
     e88:	1f 4f       	sbci	r17, 0xFF	; 255
			
			
				oled_set_page(4);
					
				for(k = 0; k < lives_tot; k++){
					for (i = 0; i < 11; i++){
     e8a:	06 15       	cp	r16, r6
     e8c:	17 05       	cpc	r17, r7
     e8e:	21 f7       	brne	.-56     	; 0xe58 <__stack+0x959>

			
			
				oled_set_page(4);
					
				for(k = 0; k < lives_tot; k++){
     e90:	ff ef       	ldi	r31, 0xFF	; 255
     e92:	ef 1a       	sub	r14, r31
     e94:	ff 0a       	sbc	r15, r31
     e96:	2b e0       	ldi	r18, 0x0B	; 11
     e98:	82 0e       	add	r8, r18
     e9a:	91 1c       	adc	r9, r1
     e9c:	e2 14       	cp	r14, r2
     e9e:	f3 04       	cpc	r15, r3
     ea0:	74 f4       	brge	.+28     	; 0xebe <__stack+0x9bf>
				
				free(message);
				
				clear_oled();
				oled_set_column(0);
				oled_set_page(0);
     ea2:	c0 56       	subi	r28, 0x60	; 96
     ea4:	de 4f       	sbci	r29, 0xFE	; 254
     ea6:	08 81       	ld	r16, Y
     ea8:	c0 5a       	subi	r28, 0xA0	; 160
     eaa:	d1 40       	sbci	r29, 0x01	; 1
     eac:	ce 55       	subi	r28, 0x5E	; 94
     eae:	de 4f       	sbci	r29, 0xFE	; 254
     eb0:	18 81       	ld	r17, Y
     eb2:	c2 5a       	subi	r28, 0xA2	; 162
     eb4:	d1 40       	sbci	r29, 0x01	; 1
     eb6:	64 01       	movw	r12, r8
     eb8:	c4 18       	sub	r12, r4
     eba:	d5 08       	sbc	r13, r5
     ebc:	cd cf       	rjmp	.-102    	; 0xe58 <__stack+0x959>
     ebe:	8c ec       	ldi	r24, 0xCC	; 204
     ec0:	94 e0       	ldi	r25, 0x04	; 4
     ec2:	01 97       	sbiw	r24, 0x01	; 1
     ec4:	f1 f7       	brne	.-4      	; 0xec2 <__stack+0x9c3>
     ec6:	00 c0       	rjmp	.+0      	; 0xec8 <__stack+0x9c9>
     ec8:	00 00       	nop
					}
				}
				
				_delay_ms(1);				//<---bør være lav
	
				DDRB &= ~((1 << PB0) | (1 << PB1) | (1 << PB2));
     eca:	87 b3       	in	r24, 0x17	; 23
     ecc:	88 7f       	andi	r24, 0xF8	; 248
     ece:	87 bb       	out	0x17, r24	; 23
				
				unsigned int x_volt = read_adc(ADC_CHANNEL_JOY_X);
     ed0:	85 e0       	ldi	r24, 0x05	; 5
     ed2:	90 e0       	ldi	r25, 0x00	; 0
     ed4:	0e 94 50 01 	call	0x2a0	; 0x2a0 <read_adc>
     ed8:	18 2f       	mov	r17, r24
				unsigned int y_volt = read_adc(ADC_CHANNEL_JOY_Y);
     eda:	84 e0       	ldi	r24, 0x04	; 4
     edc:	90 e0       	ldi	r25, 0x00	; 0
     ede:	0e 94 50 01 	call	0x2a0	; 0x2a0 <read_adc>
     ee2:	c8 2e       	mov	r12, r24
				unsigned int SR_volt = read_adc(ADC_CHANNEL_SLIDER_R);
     ee4:	87 e0       	ldi	r24, 0x07	; 7
     ee6:	90 e0       	ldi	r25, 0x00	; 0
     ee8:	0e 94 50 01 	call	0x2a0	; 0x2a0 <read_adc>
     eec:	d8 2e       	mov	r13, r24
				unsigned int SL_volt = read_adc(ADC_CHANNEL_SLIDER_L);
     eee:	86 e0       	ldi	r24, 0x06	; 6
     ef0:	90 e0       	ldi	r25, 0x00	; 0
     ef2:	0e 94 50 01 	call	0x2a0	; 0x2a0 <read_adc>


				
				bool val_joystick;  //testing if joystick pushbutton returns its value
				bool button_left = (PINB & (1 << PB0));
     ef6:	46 b3       	in	r20, 0x16	; 22
				bool button_right = (PINB & (1 << PB1));
     ef8:	56 b3       	in	r21, 0x16	; 22
				
				
				bool joystick_pressed = val_joystick;		//Ettersom det i utgangspunktet returneres '0' når Joysticken trykkes, implementerer vi den simple koden nedenfor, slik at vi får '1' når Joysticken trykkes på.
				val_joystick = (PINB & (1 << PB2));
     efa:	b6 b2       	in	r11, 0x16	; 22
     efc:	b2 fa       	bst	r11, 2
     efe:	bb 24       	eor	r11, r11
     f00:	b0 f8       	bld	r11, 0
				}
				

				msg can_message;
				
				can_message.id = 0x70;
     f02:	0f 2e       	mov	r0, r31
     f04:	f0 e7       	ldi	r31, 0x70	; 112
     f06:	ef 2e       	mov	r14, r31
     f08:	f0 2d       	mov	r31, r0
     f0a:	cb 56       	subi	r28, 0x6B	; 107
     f0c:	de 4f       	sbci	r29, 0xFE	; 254
     f0e:	e8 82       	st	Y, r14
     f10:	c5 59       	subi	r28, 0x95	; 149
     f12:	d1 40       	sbci	r29, 0x01	; 1
     f14:	ca 56       	subi	r28, 0x6A	; 106
     f16:	de 4f       	sbci	r29, 0xFE	; 254
     f18:	18 82       	st	Y, r1
     f1a:	c6 59       	subi	r28, 0x96	; 150
     f1c:	d1 40       	sbci	r29, 0x01	; 1
				can_message.length = 7;
     f1e:	97 e0       	ldi	r25, 0x07	; 7
     f20:	c9 56       	subi	r28, 0x69	; 105
     f22:	de 4f       	sbci	r29, 0xFE	; 254
     f24:	98 83       	st	Y, r25
     f26:	c7 59       	subi	r28, 0x97	; 151
     f28:	d1 40       	sbci	r29, 0x01	; 1
				
				can_message.data[0] = x_volt;
     f2a:	c8 56       	subi	r28, 0x68	; 104
     f2c:	de 4f       	sbci	r29, 0xFE	; 254
     f2e:	18 83       	st	Y, r17
     f30:	c8 59       	subi	r28, 0x98	; 152
     f32:	d1 40       	sbci	r29, 0x01	; 1
				can_message.data[1] = y_volt;
     f34:	c7 56       	subi	r28, 0x67	; 103
     f36:	de 4f       	sbci	r29, 0xFE	; 254
     f38:	c8 82       	st	Y, r12
     f3a:	c9 59       	subi	r28, 0x99	; 153
     f3c:	d1 40       	sbci	r29, 0x01	; 1
				
				
				bool joystick_pressed = val_joystick;		//Ettersom det i utgangspunktet returneres '0' når Joysticken trykkes, implementerer vi den simple koden nedenfor, slik at vi får '1' når Joysticken trykkes på.
				val_joystick = (PINB & (1 << PB2));
				
				if (joystick_pressed == 0)
     f3e:	c7 55       	subi	r28, 0x57	; 87
     f40:	de 4f       	sbci	r29, 0xFE	; 254
     f42:	38 81       	ld	r19, Y
     f44:	c9 5a       	subi	r28, 0xA9	; 169
     f46:	d1 40       	sbci	r29, 0x01	; 1
     f48:	e1 e0       	ldi	r30, 0x01	; 1
     f4a:	3e 27       	eor	r19, r30
				can_message.id = 0x70;
				can_message.length = 7;
				
				can_message.data[0] = x_volt;
				can_message.data[1] = y_volt;
				can_message.data[2] = joystick_pressed;
     f4c:	c6 56       	subi	r28, 0x66	; 102
     f4e:	de 4f       	sbci	r29, 0xFE	; 254
     f50:	38 83       	st	Y, r19
     f52:	ca 59       	subi	r28, 0x9A	; 154
     f54:	d1 40       	sbci	r29, 0x01	; 1
				unsigned int SL_volt = read_adc(ADC_CHANNEL_SLIDER_L);


				
				bool val_joystick;  //testing if joystick pushbutton returns its value
				bool button_left = (PINB & (1 << PB0));
     f56:	41 70       	andi	r20, 0x01	; 1
				can_message.length = 7;
				
				can_message.data[0] = x_volt;
				can_message.data[1] = y_volt;
				can_message.data[2] = joystick_pressed;
				can_message.data[3] = button_left;
     f58:	c5 56       	subi	r28, 0x65	; 101
     f5a:	de 4f       	sbci	r29, 0xFE	; 254
     f5c:	48 83       	st	Y, r20
     f5e:	cb 59       	subi	r28, 0x9B	; 155
     f60:	d1 40       	sbci	r29, 0x01	; 1


				
				bool val_joystick;  //testing if joystick pushbutton returns its value
				bool button_left = (PINB & (1 << PB0));
				bool button_right = (PINB & (1 << PB1));
     f62:	56 95       	lsr	r21
     f64:	51 70       	andi	r21, 0x01	; 1
				
				can_message.data[0] = x_volt;
				can_message.data[1] = y_volt;
				can_message.data[2] = joystick_pressed;
				can_message.data[3] = button_left;
				can_message.data[4] = button_right;
     f66:	c4 56       	subi	r28, 0x64	; 100
     f68:	de 4f       	sbci	r29, 0xFE	; 254
     f6a:	58 83       	st	Y, r21
     f6c:	cc 59       	subi	r28, 0x9C	; 156
     f6e:	d1 40       	sbci	r29, 0x01	; 1
				can_message.data[5] = SR_volt;
     f70:	c3 56       	subi	r28, 0x63	; 99
     f72:	de 4f       	sbci	r29, 0xFE	; 254
     f74:	d8 82       	st	Y, r13
     f76:	cd 59       	subi	r28, 0x9D	; 157
     f78:	d1 40       	sbci	r29, 0x01	; 1
				can_message.data[6] = lives_tot;
     f7a:	c8 55       	subi	r28, 0x58	; 88
     f7c:	de 4f       	sbci	r29, 0xFE	; 254
     f7e:	f8 81       	ld	r31, Y
     f80:	c8 5a       	subi	r28, 0xA8	; 168
     f82:	d1 40       	sbci	r29, 0x01	; 1
     f84:	c2 56       	subi	r28, 0x62	; 98
     f86:	de 4f       	sbci	r29, 0xFE	; 254
     f88:	f8 83       	st	Y, r31
     f8a:	ce 59       	subi	r28, 0x9E	; 158
     f8c:	d1 40       	sbci	r29, 0x01	; 1


				
				
				CAN_message_send(can_message);
     f8e:	f1 2c       	mov	r15, r1
     f90:	07 e0       	ldi	r16, 0x07	; 7
     f92:	2c 2d       	mov	r18, r12
     f94:	6d 2d       	mov	r22, r13
     f96:	7f 2f       	mov	r23, r31
     f98:	c1 56       	subi	r28, 0x61	; 97
     f9a:	de 4f       	sbci	r29, 0xFE	; 254
     f9c:	88 81       	ld	r24, Y
     f9e:	cf 59       	subi	r28, 0x9F	; 159
     fa0:	d1 40       	sbci	r29, 0x01	; 1
     fa2:	0e 94 84 01 	call	0x308	; 0x308 <CAN_message_send>
		while(sub_menu==6){		//game on
			
			// --starte en timer kanksje--
			lives_tot = lives;
	
			while(lives>0){
     fa6:	c9 55       	subi	r28, 0x59	; 89
     fa8:	de 4f       	sbci	r29, 0xFE	; 254
     faa:	28 81       	ld	r18, Y
     fac:	c7 5a       	subi	r28, 0xA7	; 167
     fae:	d1 40       	sbci	r29, 0x01	; 1
     fb0:	21 11       	cpse	r18, r1
     fb2:	b8 ce       	rjmp	.-656    	; 0xd24 <__stack+0x825>
     fb4:	0f c0       	rjmp	.+30     	; 0xfd4 <__stack+0xad5>
     fb6:	c7 55       	subi	r28, 0x57	; 87
     fb8:	de 4f       	sbci	r29, 0xFE	; 254
     fba:	b8 80       	ld	r11, Y
     fbc:	c9 5a       	subi	r28, 0xA9	; 169
     fbe:	d1 40       	sbci	r29, 0x01	; 1
     fc0:	c8 55       	subi	r28, 0x58	; 88
     fc2:	de 4f       	sbci	r29, 0xFE	; 254
     fc4:	38 81       	ld	r19, Y
     fc6:	c8 5a       	subi	r28, 0xA8	; 168
     fc8:	d1 40       	sbci	r29, 0x01	; 1
     fca:	c9 55       	subi	r28, 0x59	; 89
     fcc:	de 4f       	sbci	r29, 0xFE	; 254
     fce:	38 83       	st	Y, r19
     fd0:	c7 5a       	subi	r28, 0xA7	; 167
     fd2:	d1 40       	sbci	r29, 0x01	; 1

			}
			sub_menu = 5;  // game over
			msg can_message;
				
			can_message.id = 0x70;
     fd4:	80 e7       	ldi	r24, 0x70	; 112
     fd6:	e8 2e       	mov	r14, r24
     fd8:	cb 56       	subi	r28, 0x6B	; 107
     fda:	de 4f       	sbci	r29, 0xFE	; 254
     fdc:	88 83       	st	Y, r24
     fde:	c5 59       	subi	r28, 0x95	; 149
     fe0:	d1 40       	sbci	r29, 0x01	; 1
     fe2:	ca 56       	subi	r28, 0x6A	; 106
     fe4:	de 4f       	sbci	r29, 0xFE	; 254
     fe6:	18 82       	st	Y, r1
     fe8:	c6 59       	subi	r28, 0x96	; 150
     fea:	d1 40       	sbci	r29, 0x01	; 1
			can_message.length = 7;				// --setting node 2 to w8ting
     fec:	87 e0       	ldi	r24, 0x07	; 7
     fee:	c9 56       	subi	r28, 0x69	; 105
     ff0:	de 4f       	sbci	r29, 0xFE	; 254
     ff2:	88 83       	st	Y, r24
     ff4:	c7 59       	subi	r28, 0x97	; 151
     ff6:	d1 40       	sbci	r29, 0x01	; 1
			can_message.data[2] = 10;
     ff8:	8a e0       	ldi	r24, 0x0A	; 10
     ffa:	c6 56       	subi	r28, 0x66	; 102
     ffc:	de 4f       	sbci	r29, 0xFE	; 254
     ffe:	88 83       	st	Y, r24
    1000:	ca 59       	subi	r28, 0x9A	; 154
    1002:	d1 40       	sbci	r29, 0x01	; 1
				
			CAN_message_send(can_message);
    1004:	f1 2c       	mov	r15, r1
    1006:	07 e0       	ldi	r16, 0x07	; 7
    1008:	c8 56       	subi	r28, 0x68	; 104
    100a:	de 4f       	sbci	r29, 0xFE	; 254
    100c:	18 81       	ld	r17, Y
    100e:	c8 59       	subi	r28, 0x98	; 152
    1010:	d1 40       	sbci	r29, 0x01	; 1
    1012:	c7 56       	subi	r28, 0x67	; 103
    1014:	de 4f       	sbci	r29, 0xFE	; 254
    1016:	28 81       	ld	r18, Y
    1018:	c9 59       	subi	r28, 0x99	; 153
    101a:	d1 40       	sbci	r29, 0x01	; 1
    101c:	3a e0       	ldi	r19, 0x0A	; 10
    101e:	c5 56       	subi	r28, 0x65	; 101
    1020:	de 4f       	sbci	r29, 0xFE	; 254
    1022:	48 81       	ld	r20, Y
    1024:	cb 59       	subi	r28, 0x9B	; 155
    1026:	d1 40       	sbci	r29, 0x01	; 1
    1028:	c4 56       	subi	r28, 0x64	; 100
    102a:	de 4f       	sbci	r29, 0xFE	; 254
    102c:	58 81       	ld	r21, Y
    102e:	cc 59       	subi	r28, 0x9C	; 156
    1030:	d1 40       	sbci	r29, 0x01	; 1
    1032:	c3 56       	subi	r28, 0x63	; 99
    1034:	de 4f       	sbci	r29, 0xFE	; 254
    1036:	68 81       	ld	r22, Y
    1038:	cd 59       	subi	r28, 0x9D	; 157
    103a:	d1 40       	sbci	r29, 0x01	; 1
    103c:	c2 56       	subi	r28, 0x62	; 98
    103e:	de 4f       	sbci	r29, 0xFE	; 254
    1040:	78 81       	ld	r23, Y
    1042:	ce 59       	subi	r28, 0x9E	; 158
    1044:	d1 40       	sbci	r29, 0x01	; 1
    1046:	c1 56       	subi	r28, 0x61	; 97
    1048:	de 4f       	sbci	r29, 0xFE	; 254
    104a:	88 81       	ld	r24, Y
    104c:	cf 59       	subi	r28, 0x9F	; 159
    104e:	d1 40       	sbci	r29, 0x01	; 1
    1050:	0e 94 84 01 	call	0x308	; 0x308 <CAN_message_send>
    1054:	c7 55       	subi	r28, 0x57	; 87
    1056:	de 4f       	sbci	r29, 0xFE	; 254
    1058:	b8 82       	st	Y, r11
    105a:	c9 5a       	subi	r28, 0xA9	; 169
    105c:	d1 40       	sbci	r29, 0x01	; 1
    105e:	c9 55       	subi	r28, 0x59	; 89
    1060:	de 4f       	sbci	r29, 0xFE	; 254
    1062:	48 81       	ld	r20, Y
    1064:	c7 5a       	subi	r28, 0xA7	; 167
    1066:	d1 40       	sbci	r29, 0x01	; 1
    1068:	c8 55       	subi	r28, 0x58	; 88
    106a:	de 4f       	sbci	r29, 0xFE	; 254
    106c:	48 83       	st	Y, r20
    106e:	c8 5a       	subi	r28, 0xA8	; 168
    1070:	d1 40       	sbci	r29, 0x01	; 1
				
				
				CAN_message_send(can_message);

			}
			sub_menu = 5;  // game over
    1072:	85 e0       	ldi	r24, 0x05	; 5
    1074:	90 e0       	ldi	r25, 0x00	; 0
    1076:	7e ca       	rjmp	.-2820   	; 0x574 <__stack+0x75>
		while(sub_menu==6){		//game on
			
			// --starte en timer kanksje--
			lives_tot = lives;
	
			while(lives>0){
    1078:	c8 55       	subi	r28, 0x58	; 88
    107a:	de 4f       	sbci	r29, 0xFE	; 254
    107c:	88 81       	ld	r24, Y
    107e:	c8 5a       	subi	r28, 0xA8	; 168
    1080:	d1 40       	sbci	r29, 0x01	; 1
    1082:	88 23       	and	r24, r24
    1084:	09 f4       	brne	.+2      	; 0x1088 <__stack+0xb89>
    1086:	97 cf       	rjmp	.-210    	; 0xfb6 <__stack+0xab7>

			
			
				oled_set_page(4);
					
				for(k = 0; k < lives_tot; k++){
    1088:	e8 2f       	mov	r30, r24
    108a:	f0 e0       	ldi	r31, 0x00	; 0
    108c:	c6 55       	subi	r28, 0x56	; 86
    108e:	de 4f       	sbci	r29, 0xFE	; 254
    1090:	f9 83       	std	Y+1, r31	; 0x01
    1092:	e8 83       	st	Y, r30
    1094:	ca 5a       	subi	r28, 0xAA	; 170
    1096:	d1 40       	sbci	r29, 0x01	; 1
    1098:	0f 2e       	mov	r0, r31
    109a:	f0 e7       	ldi	r31, 0x70	; 112
    109c:	4f 2e       	mov	r4, r31
    109e:	f0 e0       	ldi	r31, 0x00	; 0
    10a0:	5f 2e       	mov	r5, r31
    10a2:	f0 2d       	mov	r31, r0
    10a4:	0f 2e       	mov	r0, r31
    10a6:	fb e7       	ldi	r31, 0x7B	; 123
    10a8:	6f 2e       	mov	r6, r31
    10aa:	f0 e0       	ldi	r31, 0x00	; 0
    10ac:	7f 2e       	mov	r7, r31
    10ae:	f0 2d       	mov	r31, r0
    10b0:	c0 56       	subi	r28, 0x60	; 96
    10b2:	de 4f       	sbci	r29, 0xFE	; 254
    10b4:	48 82       	st	Y, r4
    10b6:	c0 5a       	subi	r28, 0xA0	; 160
    10b8:	d1 40       	sbci	r29, 0x01	; 1
    10ba:	ce 55       	subi	r28, 0x5E	; 94
    10bc:	de 4f       	sbci	r29, 0xFE	; 254
    10be:	58 82       	st	Y, r5
    10c0:	c2 5a       	subi	r28, 0xA2	; 162
    10c2:	d1 40       	sbci	r29, 0x01	; 1
    10c4:	34 ce       	rjmp	.-920    	; 0xd2e <__stack+0x82f>
			}
			if (y_volt > 135 && select_menu > 1){
				select_menu--;
			}
			if(x_volt < 60){
				sub_menu = 1;
    10c6:	81 e0       	ldi	r24, 0x01	; 1
    10c8:	90 e0       	ldi	r25, 0x00	; 0
    10ca:	a8 cc       	rjmp	.-1712   	; 0xa1c <__stack+0x51d>
				}
				if (select_menu == 2){	//allied
					team_chosen = 1;
				}
				if (select_menu == 3){	//soviet
					team_chosen = 2;
    10cc:	22 e0       	ldi	r18, 0x02	; 2
    10ce:	30 e0       	ldi	r19, 0x00	; 0
    10d0:	c2 55       	subi	r28, 0x52	; 82
    10d2:	de 4f       	sbci	r29, 0xFE	; 254
    10d4:	39 83       	std	Y+1, r19	; 0x01
    10d6:	28 83       	st	Y, r18
    10d8:	ce 5a       	subi	r28, 0xAE	; 174
    10da:	d1 40       	sbci	r29, 0x01	; 1
				}
				if (select_menu == 4){	//sweden
					team_chosen = 3;
				}
				sub_menu = 4;	//print chosen team
    10dc:	84 e0       	ldi	r24, 0x04	; 4
    10de:	90 e0       	ldi	r25, 0x00	; 0
    10e0:	9d cc       	rjmp	.-1734   	; 0xa1c <__stack+0x51d>
				}
				if (select_menu == 3){	//soviet
					team_chosen = 2;
				}
				if (select_menu == 4){	//sweden
					team_chosen = 3;
    10e2:	83 e0       	ldi	r24, 0x03	; 3
    10e4:	90 e0       	ldi	r25, 0x00	; 0
    10e6:	c2 55       	subi	r28, 0x52	; 82
    10e8:	de 4f       	sbci	r29, 0xFE	; 254
    10ea:	99 83       	std	Y+1, r25	; 0x01
    10ec:	88 83       	st	Y, r24
    10ee:	ce 5a       	subi	r28, 0xAE	; 174
    10f0:	d1 40       	sbci	r29, 0x01	; 1
				}
				sub_menu = 4;	//print chosen team
    10f2:	84 e0       	ldi	r24, 0x04	; 4
    10f4:	90 e0       	ldi	r25, 0x00	; 0
    10f6:	92 cc       	rjmp	.-1756   	; 0xa1c <__stack+0x51d>
			}
			if (y_volt > 135 && select_menu > 1){
				select_menu--;
			}
			if(x_volt < 60){
				sub_menu = 1;
    10f8:	81 e0       	ldi	r24, 0x01	; 1
    10fa:	90 e0       	ldi	r25, 0x00	; 0
    10fc:	b9 cd       	rjmp	.-1166   	; 0xc70 <__stack+0x771>
				if (select_menu == 2){	//hard-mode
					lives = 3;
					sub_menu =6;
				}
				if (select_menu == 3){	//dark souls
					lives = 1;
    10fe:	91 e0       	ldi	r25, 0x01	; 1
    1100:	c8 55       	subi	r28, 0x58	; 88
    1102:	de 4f       	sbci	r29, 0xFE	; 254
    1104:	98 83       	st	Y, r25
    1106:	c8 5a       	subi	r28, 0xA8	; 168
    1108:	d1 40       	sbci	r29, 0x01	; 1
					sub_menu =6;
    110a:	86 e0       	ldi	r24, 0x06	; 6
    110c:	90 e0       	ldi	r25, 0x00	; 0
    110e:	b0 cd       	rjmp	.-1184   	; 0xc70 <__stack+0x771>

00001110 <main>:


void main(void)
{
	//INIT
	USART_Init(MYUBRR);
    1110:	8f e1       	ldi	r24, 0x1F	; 31
    1112:	90 e0       	ldi	r25, 0x00	; 0
    1114:	0e 94 5d 09 	call	0x12ba	; 0x12ba <USART_Init>
	ram_init();
    1118:	0e 94 31 09 	call	0x1262	; 0x1262 <ram_init>
	MCP_init();
    111c:	0e 94 9e 08 	call	0x113c	; 0x113c <MCP_init>
	CAN_init();
    1120:	0e 94 5a 01 	call	0x2b4	; 0x2b4 <CAN_init>
		
		
		
	//OLED
	//oled_init();
	init_program();
    1124:	0e 94 cd 08 	call	0x119a	; 0x119a <init_program>
	new_oled_menu();
    1128:	0e 94 07 02 	call	0x40e	; 0x40e <new_oled_menu>

0000112c <MCP_reset>:
	return 0;
}

int MCP_reset(void)
{
	PORTB &= ~(1 << SS);
    112c:	c4 98       	cbi	0x18, 4	; 24
	
	SPI_MasterTransmit(MCP_RESET);
    112e:	80 ec       	ldi	r24, 0xC0	; 192
    1130:	0e 94 4c 09 	call	0x1298	; 0x1298 <SPI_MasterTransmit>
	
	PORTB |= (1 << SS);
    1134:	c4 9a       	sbi	0x18, 4	; 24
	
	return 0;
}
    1136:	80 e0       	ldi	r24, 0x00	; 0
    1138:	90 e0       	ldi	r25, 0x00	; 0
    113a:	08 95       	ret

0000113c <MCP_init>:
#include "SPI.h"
#include "MCP2515.h"

int MCP_init(void)
{
	SPI_MasterInit();
    113c:	0e 94 44 09 	call	0x1288	; 0x1288 <SPI_MasterInit>
	MCP_reset();
    1140:	0e 94 96 08 	call	0x112c	; 0x112c <MCP_reset>
	
	return 0;
}
    1144:	80 e0       	ldi	r24, 0x00	; 0
    1146:	90 e0       	ldi	r25, 0x00	; 0
    1148:	08 95       	ret

0000114a <MCP_read>:
	
	return 0;
}

char MCP_read(char address)
{
    114a:	cf 93       	push	r28
    114c:	c8 2f       	mov	r28, r24
	PORTB &= ~(1 << SS); 
    114e:	c4 98       	cbi	0x18, 4	; 24
		
	SPI_MasterTransmit(MCP_READ);
    1150:	83 e0       	ldi	r24, 0x03	; 3
    1152:	0e 94 4c 09 	call	0x1298	; 0x1298 <SPI_MasterTransmit>
	SPI_MasterTransmit(address);
    1156:	8c 2f       	mov	r24, r28
    1158:	0e 94 4c 09 	call	0x1298	; 0x1298 <SPI_MasterTransmit>
	
	char data = SPI_SlaveReceive();
    115c:	0e 94 50 09 	call	0x12a0	; 0x12a0 <SPI_SlaveReceive>
	
	PORTB |= (1 << SS);
    1160:	c4 9a       	sbi	0x18, 4	; 24
	
	return data;

}
    1162:	cf 91       	pop	r28
    1164:	08 95       	ret

00001166 <MCP_write>:

void MCP_write(char address, char data)
{
    1166:	cf 93       	push	r28
    1168:	df 93       	push	r29
    116a:	d8 2f       	mov	r29, r24
    116c:	c6 2f       	mov	r28, r22
	PORTB &= ~(1 << SS); 
    116e:	c4 98       	cbi	0x18, 4	; 24
	
	SPI_MasterTransmit(MCP_WRITE);
    1170:	82 e0       	ldi	r24, 0x02	; 2
    1172:	0e 94 4c 09 	call	0x1298	; 0x1298 <SPI_MasterTransmit>
	SPI_MasterTransmit(address);
    1176:	8d 2f       	mov	r24, r29
    1178:	0e 94 4c 09 	call	0x1298	; 0x1298 <SPI_MasterTransmit>
	SPI_MasterTransmit(data);
    117c:	8c 2f       	mov	r24, r28
    117e:	0e 94 4c 09 	call	0x1298	; 0x1298 <SPI_MasterTransmit>
	
	PORTB |= (1 << SS);
    1182:	c4 9a       	sbi	0x18, 4	; 24
}
    1184:	df 91       	pop	r29
    1186:	cf 91       	pop	r28
    1188:	08 95       	ret

0000118a <MCP_rts>:

void MCP_rts(char rts)
{
	PORTB &= ~(1 << SS);
    118a:	c4 98       	cbi	0x18, 4	; 24
	
	SPI_MasterTransmit(rts);
    118c:	0e 94 4c 09 	call	0x1298	; 0x1298 <SPI_MasterTransmit>
	
	PORTB |= (1 << SS);
    1190:	c4 9a       	sbi	0x18, 4	; 24
    1192:	08 95       	ret

00001194 <write_d>:
}

void write_d(unsigned char out_com)
{
	volatile char *OLEDd = (char*)OLED_DATA_MEMORY_START;
	*OLEDd = out_com;
    1194:	80 93 00 12 	sts	0x1200, r24
    1198:	08 95       	ret

0000119a <init_program>:
#include "define.h"

void write_c(unsigned char out_com)
{
	volatile char *OLEDc = (char*)OLED_COMMAND_MEMORY_START;
	*OLEDc = out_com;
    119a:	e0 e0       	ldi	r30, 0x00	; 0
    119c:	f0 e1       	ldi	r31, 0x10	; 16
    119e:	8e ea       	ldi	r24, 0xAE	; 174
    11a0:	80 83       	st	Z, r24
    11a2:	81 ea       	ldi	r24, 0xA1	; 161
    11a4:	80 83       	st	Z, r24
    11a6:	8a ed       	ldi	r24, 0xDA	; 218
    11a8:	80 83       	st	Z, r24
    11aa:	82 e1       	ldi	r24, 0x12	; 18
    11ac:	80 83       	st	Z, r24
    11ae:	88 ec       	ldi	r24, 0xC8	; 200
    11b0:	80 83       	st	Z, r24
    11b2:	88 ea       	ldi	r24, 0xA8	; 168
    11b4:	80 83       	st	Z, r24
    11b6:	8f e3       	ldi	r24, 0x3F	; 63
    11b8:	80 83       	st	Z, r24
    11ba:	85 ed       	ldi	r24, 0xD5	; 213
    11bc:	80 83       	st	Z, r24
    11be:	80 e8       	ldi	r24, 0x80	; 128
    11c0:	80 83       	st	Z, r24
    11c2:	81 e8       	ldi	r24, 0x81	; 129
    11c4:	80 83       	st	Z, r24
    11c6:	80 e5       	ldi	r24, 0x50	; 80
    11c8:	80 83       	st	Z, r24
    11ca:	89 ed       	ldi	r24, 0xD9	; 217
    11cc:	80 83       	st	Z, r24
    11ce:	81 e2       	ldi	r24, 0x21	; 33
    11d0:	80 83       	st	Z, r24
    11d2:	80 e2       	ldi	r24, 0x20	; 32
    11d4:	80 83       	st	Z, r24
    11d6:	82 e0       	ldi	r24, 0x02	; 2
    11d8:	80 83       	st	Z, r24
    11da:	8d eb       	ldi	r24, 0xBD	; 189
    11dc:	80 83       	st	Z, r24
    11de:	80 e3       	ldi	r24, 0x30	; 48
    11e0:	80 83       	st	Z, r24
    11e2:	8d ea       	ldi	r24, 0xAD	; 173
    11e4:	80 83       	st	Z, r24
    11e6:	10 82       	st	Z, r1
    11e8:	84 ea       	ldi	r24, 0xA4	; 164
    11ea:	80 83       	st	Z, r24
    11ec:	86 ea       	ldi	r24, 0xA6	; 166
    11ee:	80 83       	st	Z, r24
    11f0:	8f ea       	ldi	r24, 0xAF	; 175
    11f2:	80 83       	st	Z, r24
    11f4:	08 95       	ret

000011f6 <oled_set_column>:
	write_c(0xAF);        // display  on
}

void oled_set_column(uint8_t column)
{
	write_c(0x00 + column%16);
    11f6:	98 2f       	mov	r25, r24
    11f8:	9f 70       	andi	r25, 0x0F	; 15
#include "define.h"

void write_c(unsigned char out_com)
{
	volatile char *OLEDc = (char*)OLED_COMMAND_MEMORY_START;
	*OLEDc = out_com;
    11fa:	e0 e0       	ldi	r30, 0x00	; 0
    11fc:	f0 e1       	ldi	r31, 0x10	; 16
    11fe:	90 83       	st	Z, r25
}

void oled_set_column(uint8_t column)
{
	write_c(0x00 + column%16);
	write_c(0x10 + column/16); // start address
    1200:	82 95       	swap	r24
    1202:	8f 70       	andi	r24, 0x0F	; 15
    1204:	80 5f       	subi	r24, 0xF0	; 240
#include "define.h"

void write_c(unsigned char out_com)
{
	volatile char *OLEDc = (char*)OLED_COMMAND_MEMORY_START;
	*OLEDc = out_com;
    1206:	80 83       	st	Z, r24
    1208:	08 95       	ret

0000120a <oled_set_page>:
	write_c(0x10 + column/16); // start address
	
}
void oled_set_page(uint8_t page)
{
	write_c(0xB0 + page);
    120a:	80 55       	subi	r24, 0x50	; 80
#include "define.h"

void write_c(unsigned char out_com)
{
	volatile char *OLEDc = (char*)OLED_COMMAND_MEMORY_START;
	*OLEDc = out_com;
    120c:	80 93 00 10 	sts	0x1000, r24
    1210:	08 95       	ret

00001212 <clear_oled>:
{
	write_c(0xB0 + page);
}

void clear_oled()
{
    1212:	af 92       	push	r10
    1214:	bf 92       	push	r11
    1216:	df 92       	push	r13
    1218:	ef 92       	push	r14
    121a:	1f 93       	push	r17
    121c:	cf 93       	push	r28
    121e:	df 93       	push	r29
    1220:	0f 2e       	mov	r0, r31
    1222:	f0 eb       	ldi	r31, 0xB0	; 176
    1224:	ef 2e       	mov	r14, r31
    1226:	f0 2d       	mov	r31, r0
#include "define.h"

void write_c(unsigned char out_com)
{
	volatile char *OLEDc = (char*)OLED_COMMAND_MEMORY_START;
	*OLEDc = out_com;
    1228:	a1 2c       	mov	r10, r1
    122a:	68 94       	set
    122c:	bb 24       	eor	r11, r11
    122e:	b4 f8       	bld	r11, 4
    1230:	d1 2c       	mov	r13, r1
}

void write_d(unsigned char out_com)
{
	volatile char *OLEDd = (char*)OLED_DATA_MEMORY_START;
	*OLEDd = out_com;
    1232:	c0 e0       	ldi	r28, 0x00	; 0
    1234:	d2 e1       	ldi	r29, 0x12	; 18
#include "define.h"

void write_c(unsigned char out_com)
{
	volatile char *OLEDc = (char*)OLED_COMMAND_MEMORY_START;
	*OLEDc = out_com;
    1236:	f5 01       	movw	r30, r10
    1238:	e0 82       	st	Z, r14
    123a:	1d 2d       	mov	r17, r13
	{
		oled_set_page(j);
		
		for(i = 0; i < 128; i++)
		{
			oled_set_column(i);
    123c:	81 2f       	mov	r24, r17
    123e:	0e 94 fb 08 	call	0x11f6	; 0x11f6 <oled_set_column>
}

void write_d(unsigned char out_com)
{
	volatile char *OLEDd = (char*)OLED_DATA_MEMORY_START;
	*OLEDd = out_com;
    1242:	18 82       	st	Y, r1
    1244:	1f 5f       	subi	r17, 0xFF	; 255
	
	for(j = 0; j < 8; j++)
	{
		oled_set_page(j);
		
		for(i = 0; i < 128; i++)
    1246:	10 38       	cpi	r17, 0x80	; 128
    1248:	c9 f7       	brne	.-14     	; 0x123c <clear_oled+0x2a>
    124a:	e3 94       	inc	r14

void clear_oled()
{
	int i, j;
	
	for(j = 0; j < 8; j++)
    124c:	f8 eb       	ldi	r31, 0xB8	; 184
    124e:	ef 12       	cpse	r14, r31
    1250:	f2 cf       	rjmp	.-28     	; 0x1236 <clear_oled+0x24>
		{
			oled_set_column(i);
			write_d(0x00);
		}
	}
}
    1252:	df 91       	pop	r29
    1254:	cf 91       	pop	r28
    1256:	1f 91       	pop	r17
    1258:	ef 90       	pop	r14
    125a:	df 90       	pop	r13
    125c:	bf 90       	pop	r11
    125e:	af 90       	pop	r10
    1260:	08 95       	ret

00001262 <ram_init>:
#include "define.h"

void ram_init(void)
{
	bit_set(MCUCR, SRE);
    1262:	85 b7       	in	r24, 0x35	; 53
    1264:	80 68       	ori	r24, 0x80	; 128
    1266:	85 bf       	out	0x35, r24	; 53
	
	bit_set(SFIOR, XMM2);
    1268:	80 b7       	in	r24, 0x30	; 48
    126a:	80 62       	ori	r24, 0x20	; 32
    126c:	80 bf       	out	0x30, r24	; 48
	bit_clear(SFIOR, XMM1);
    126e:	80 b7       	in	r24, 0x30	; 48
    1270:	8f 7e       	andi	r24, 0xEF	; 239
    1272:	80 bf       	out	0x30, r24	; 48
	bit_clear(SFIOR, XMM0);
    1274:	80 b7       	in	r24, 0x30	; 48
    1276:	87 7f       	andi	r24, 0xF7	; 247
    1278:	80 bf       	out	0x30, r24	; 48

	bit_set(MCUCR, SRW11);
    127a:	85 b7       	in	r24, 0x35	; 53
    127c:	82 60       	ori	r24, 0x02	; 2
    127e:	85 bf       	out	0x35, r24	; 53
	bit_clear(EMCUCR, SRW10);	
    1280:	86 b7       	in	r24, 0x36	; 54
    1282:	8f 7b       	andi	r24, 0xBF	; 191
    1284:	86 bf       	out	0x36, r24	; 54
    1286:	08 95       	ret

00001288 <SPI_MasterInit>:
#define SCK PB7


void SPI_MasterInit(void)
{
	DDRB |= (1 << MOSI) | (1 << SS) | (1 << SCK);
    1288:	87 b3       	in	r24, 0x17	; 23
    128a:	80 6b       	ori	r24, 0xB0	; 176
    128c:	87 bb       	out	0x17, r24	; 23
	DDRB &= ~(1 << MISO);
    128e:	be 98       	cbi	0x17, 6	; 23
	SPCR |= (1 << SPE) | (1 << MSTR) | (1 << SPR0);
    1290:	8d b1       	in	r24, 0x0d	; 13
    1292:	81 65       	ori	r24, 0x51	; 81
    1294:	8d b9       	out	0x0d, r24	; 13
    1296:	08 95       	ret

00001298 <SPI_MasterTransmit>:
}


void SPI_MasterTransmit(char cdata)
{
	SPDR = cdata;
    1298:	8f b9       	out	0x0f, r24	; 15
	
	while(!(SPSR & (1 << SPIF)));
    129a:	77 9b       	sbis	0x0e, 7	; 14
    129c:	fe cf       	rjmp	.-4      	; 0x129a <SPI_MasterTransmit+0x2>
}
    129e:	08 95       	ret

000012a0 <SPI_SlaveReceive>:
}


uint8_t SPI_SlaveReceive(void)
{
	SPI_MasterTransmit(0);
    12a0:	80 e0       	ldi	r24, 0x00	; 0
    12a2:	0e 94 4c 09 	call	0x1298	; 0x1298 <SPI_MasterTransmit>
	return SPDR;
    12a6:	8f b1       	in	r24, 0x0f	; 15
    12a8:	08 95       	ret

000012aa <USART_Transmit>:
}

void USART_Transmit(unsigned char data)
{
	/* Wait for empty transmit buffer */
	while ( !(UCSR0A & (1 << UDRE0)) );
    12aa:	5d 9b       	sbis	0x0b, 5	; 11
    12ac:	fe cf       	rjmp	.-4      	; 0x12aa <USART_Transmit>
	
	/* Put data into buffer, sends the data */
	UDR0 = data;
    12ae:	8c b9       	out	0x0c, r24	; 12
    12b0:	08 95       	ret

000012b2 <USART_Receive>:
}

unsigned char USART_Receive(void)
{
	/* Wait for data to be received */
	while ( !(UCSR0A & (1 << RXC0)) );
    12b2:	5f 9b       	sbis	0x0b, 7	; 11
    12b4:	fe cf       	rjmp	.-4      	; 0x12b2 <USART_Receive>
	
	/* Get and return received data from buffer */
	return UDR0;
    12b6:	8c b1       	in	r24, 0x0c	; 12
}
    12b8:	08 95       	ret

000012ba <USART_Init>:

FILE *uart;

void USART_Init(unsigned int ubrr)
{
	UBRR0H = (unsigned char)(ubrr >> 8);
    12ba:	90 bd       	out	0x20, r25	; 32
	UBRR0L = (unsigned char)ubrr;
    12bc:	89 b9       	out	0x09, r24	; 9
	
	UCSR0B = (1 << RXEN0)|(1 << TXEN0);
    12be:	88 e1       	ldi	r24, 0x18	; 24
    12c0:	8a b9       	out	0x0a, r24	; 10
	
	uart = fdevopen(&USART_Transmit, &USART_Receive);
    12c2:	69 e5       	ldi	r22, 0x59	; 89
    12c4:	79 e0       	ldi	r23, 0x09	; 9
    12c6:	85 e5       	ldi	r24, 0x55	; 85
    12c8:	99 e0       	ldi	r25, 0x09	; 9
    12ca:	0e 94 93 0a 	call	0x1526	; 0x1526 <fdevopen>
    12ce:	90 93 ad 02 	sts	0x02AD, r25
    12d2:	80 93 ac 02 	sts	0x02AC, r24
    12d6:	08 95       	ret

000012d8 <malloc>:
    12d8:	cf 93       	push	r28
    12da:	df 93       	push	r29
    12dc:	82 30       	cpi	r24, 0x02	; 2
    12de:	91 05       	cpc	r25, r1
    12e0:	10 f4       	brcc	.+4      	; 0x12e6 <malloc+0xe>
    12e2:	82 e0       	ldi	r24, 0x02	; 2
    12e4:	90 e0       	ldi	r25, 0x00	; 0
    12e6:	e0 91 b0 02 	lds	r30, 0x02B0
    12ea:	f0 91 b1 02 	lds	r31, 0x02B1
    12ee:	20 e0       	ldi	r18, 0x00	; 0
    12f0:	30 e0       	ldi	r19, 0x00	; 0
    12f2:	a0 e0       	ldi	r26, 0x00	; 0
    12f4:	b0 e0       	ldi	r27, 0x00	; 0
    12f6:	30 97       	sbiw	r30, 0x00	; 0
    12f8:	39 f1       	breq	.+78     	; 0x1348 <malloc+0x70>
    12fa:	40 81       	ld	r20, Z
    12fc:	51 81       	ldd	r21, Z+1	; 0x01
    12fe:	48 17       	cp	r20, r24
    1300:	59 07       	cpc	r21, r25
    1302:	b8 f0       	brcs	.+46     	; 0x1332 <malloc+0x5a>
    1304:	48 17       	cp	r20, r24
    1306:	59 07       	cpc	r21, r25
    1308:	71 f4       	brne	.+28     	; 0x1326 <malloc+0x4e>
    130a:	82 81       	ldd	r24, Z+2	; 0x02
    130c:	93 81       	ldd	r25, Z+3	; 0x03
    130e:	10 97       	sbiw	r26, 0x00	; 0
    1310:	29 f0       	breq	.+10     	; 0x131c <malloc+0x44>
    1312:	13 96       	adiw	r26, 0x03	; 3
    1314:	9c 93       	st	X, r25
    1316:	8e 93       	st	-X, r24
    1318:	12 97       	sbiw	r26, 0x02	; 2
    131a:	2c c0       	rjmp	.+88     	; 0x1374 <malloc+0x9c>
    131c:	90 93 b1 02 	sts	0x02B1, r25
    1320:	80 93 b0 02 	sts	0x02B0, r24
    1324:	27 c0       	rjmp	.+78     	; 0x1374 <malloc+0x9c>
    1326:	21 15       	cp	r18, r1
    1328:	31 05       	cpc	r19, r1
    132a:	31 f0       	breq	.+12     	; 0x1338 <malloc+0x60>
    132c:	42 17       	cp	r20, r18
    132e:	53 07       	cpc	r21, r19
    1330:	18 f0       	brcs	.+6      	; 0x1338 <malloc+0x60>
    1332:	a9 01       	movw	r20, r18
    1334:	db 01       	movw	r26, r22
    1336:	01 c0       	rjmp	.+2      	; 0x133a <malloc+0x62>
    1338:	ef 01       	movw	r28, r30
    133a:	9a 01       	movw	r18, r20
    133c:	bd 01       	movw	r22, r26
    133e:	df 01       	movw	r26, r30
    1340:	02 80       	ldd	r0, Z+2	; 0x02
    1342:	f3 81       	ldd	r31, Z+3	; 0x03
    1344:	e0 2d       	mov	r30, r0
    1346:	d7 cf       	rjmp	.-82     	; 0x12f6 <malloc+0x1e>
    1348:	21 15       	cp	r18, r1
    134a:	31 05       	cpc	r19, r1
    134c:	f9 f0       	breq	.+62     	; 0x138c <malloc+0xb4>
    134e:	28 1b       	sub	r18, r24
    1350:	39 0b       	sbc	r19, r25
    1352:	24 30       	cpi	r18, 0x04	; 4
    1354:	31 05       	cpc	r19, r1
    1356:	80 f4       	brcc	.+32     	; 0x1378 <malloc+0xa0>
    1358:	8a 81       	ldd	r24, Y+2	; 0x02
    135a:	9b 81       	ldd	r25, Y+3	; 0x03
    135c:	61 15       	cp	r22, r1
    135e:	71 05       	cpc	r23, r1
    1360:	21 f0       	breq	.+8      	; 0x136a <malloc+0x92>
    1362:	fb 01       	movw	r30, r22
    1364:	93 83       	std	Z+3, r25	; 0x03
    1366:	82 83       	std	Z+2, r24	; 0x02
    1368:	04 c0       	rjmp	.+8      	; 0x1372 <malloc+0x9a>
    136a:	90 93 b1 02 	sts	0x02B1, r25
    136e:	80 93 b0 02 	sts	0x02B0, r24
    1372:	fe 01       	movw	r30, r28
    1374:	32 96       	adiw	r30, 0x02	; 2
    1376:	44 c0       	rjmp	.+136    	; 0x1400 <malloc+0x128>
    1378:	fe 01       	movw	r30, r28
    137a:	e2 0f       	add	r30, r18
    137c:	f3 1f       	adc	r31, r19
    137e:	81 93       	st	Z+, r24
    1380:	91 93       	st	Z+, r25
    1382:	22 50       	subi	r18, 0x02	; 2
    1384:	31 09       	sbc	r19, r1
    1386:	39 83       	std	Y+1, r19	; 0x01
    1388:	28 83       	st	Y, r18
    138a:	3a c0       	rjmp	.+116    	; 0x1400 <malloc+0x128>
    138c:	20 91 ae 02 	lds	r18, 0x02AE
    1390:	30 91 af 02 	lds	r19, 0x02AF
    1394:	23 2b       	or	r18, r19
    1396:	41 f4       	brne	.+16     	; 0x13a8 <malloc+0xd0>
    1398:	20 91 02 01 	lds	r18, 0x0102
    139c:	30 91 03 01 	lds	r19, 0x0103
    13a0:	30 93 af 02 	sts	0x02AF, r19
    13a4:	20 93 ae 02 	sts	0x02AE, r18
    13a8:	20 91 00 01 	lds	r18, 0x0100
    13ac:	30 91 01 01 	lds	r19, 0x0101
    13b0:	21 15       	cp	r18, r1
    13b2:	31 05       	cpc	r19, r1
    13b4:	41 f4       	brne	.+16     	; 0x13c6 <malloc+0xee>
    13b6:	2d b7       	in	r18, 0x3d	; 61
    13b8:	3e b7       	in	r19, 0x3e	; 62
    13ba:	40 91 04 01 	lds	r20, 0x0104
    13be:	50 91 05 01 	lds	r21, 0x0105
    13c2:	24 1b       	sub	r18, r20
    13c4:	35 0b       	sbc	r19, r21
    13c6:	e0 91 ae 02 	lds	r30, 0x02AE
    13ca:	f0 91 af 02 	lds	r31, 0x02AF
    13ce:	e2 17       	cp	r30, r18
    13d0:	f3 07       	cpc	r31, r19
    13d2:	a0 f4       	brcc	.+40     	; 0x13fc <malloc+0x124>
    13d4:	2e 1b       	sub	r18, r30
    13d6:	3f 0b       	sbc	r19, r31
    13d8:	28 17       	cp	r18, r24
    13da:	39 07       	cpc	r19, r25
    13dc:	78 f0       	brcs	.+30     	; 0x13fc <malloc+0x124>
    13de:	ac 01       	movw	r20, r24
    13e0:	4e 5f       	subi	r20, 0xFE	; 254
    13e2:	5f 4f       	sbci	r21, 0xFF	; 255
    13e4:	24 17       	cp	r18, r20
    13e6:	35 07       	cpc	r19, r21
    13e8:	48 f0       	brcs	.+18     	; 0x13fc <malloc+0x124>
    13ea:	4e 0f       	add	r20, r30
    13ec:	5f 1f       	adc	r21, r31
    13ee:	50 93 af 02 	sts	0x02AF, r21
    13f2:	40 93 ae 02 	sts	0x02AE, r20
    13f6:	81 93       	st	Z+, r24
    13f8:	91 93       	st	Z+, r25
    13fa:	02 c0       	rjmp	.+4      	; 0x1400 <malloc+0x128>
    13fc:	e0 e0       	ldi	r30, 0x00	; 0
    13fe:	f0 e0       	ldi	r31, 0x00	; 0
    1400:	cf 01       	movw	r24, r30
    1402:	df 91       	pop	r29
    1404:	cf 91       	pop	r28
    1406:	08 95       	ret

00001408 <free>:
    1408:	cf 93       	push	r28
    140a:	df 93       	push	r29
    140c:	00 97       	sbiw	r24, 0x00	; 0
    140e:	09 f4       	brne	.+2      	; 0x1412 <free+0xa>
    1410:	87 c0       	rjmp	.+270    	; 0x1520 <free+0x118>
    1412:	fc 01       	movw	r30, r24
    1414:	32 97       	sbiw	r30, 0x02	; 2
    1416:	13 82       	std	Z+3, r1	; 0x03
    1418:	12 82       	std	Z+2, r1	; 0x02
    141a:	c0 91 b0 02 	lds	r28, 0x02B0
    141e:	d0 91 b1 02 	lds	r29, 0x02B1
    1422:	20 97       	sbiw	r28, 0x00	; 0
    1424:	81 f4       	brne	.+32     	; 0x1446 <free+0x3e>
    1426:	20 81       	ld	r18, Z
    1428:	31 81       	ldd	r19, Z+1	; 0x01
    142a:	28 0f       	add	r18, r24
    142c:	39 1f       	adc	r19, r25
    142e:	80 91 ae 02 	lds	r24, 0x02AE
    1432:	90 91 af 02 	lds	r25, 0x02AF
    1436:	82 17       	cp	r24, r18
    1438:	93 07       	cpc	r25, r19
    143a:	79 f5       	brne	.+94     	; 0x149a <free+0x92>
    143c:	f0 93 af 02 	sts	0x02AF, r31
    1440:	e0 93 ae 02 	sts	0x02AE, r30
    1444:	6d c0       	rjmp	.+218    	; 0x1520 <free+0x118>
    1446:	de 01       	movw	r26, r28
    1448:	20 e0       	ldi	r18, 0x00	; 0
    144a:	30 e0       	ldi	r19, 0x00	; 0
    144c:	ae 17       	cp	r26, r30
    144e:	bf 07       	cpc	r27, r31
    1450:	50 f4       	brcc	.+20     	; 0x1466 <free+0x5e>
    1452:	12 96       	adiw	r26, 0x02	; 2
    1454:	4d 91       	ld	r20, X+
    1456:	5c 91       	ld	r21, X
    1458:	13 97       	sbiw	r26, 0x03	; 3
    145a:	9d 01       	movw	r18, r26
    145c:	41 15       	cp	r20, r1
    145e:	51 05       	cpc	r21, r1
    1460:	09 f1       	breq	.+66     	; 0x14a4 <free+0x9c>
    1462:	da 01       	movw	r26, r20
    1464:	f3 cf       	rjmp	.-26     	; 0x144c <free+0x44>
    1466:	b3 83       	std	Z+3, r27	; 0x03
    1468:	a2 83       	std	Z+2, r26	; 0x02
    146a:	40 81       	ld	r20, Z
    146c:	51 81       	ldd	r21, Z+1	; 0x01
    146e:	84 0f       	add	r24, r20
    1470:	95 1f       	adc	r25, r21
    1472:	8a 17       	cp	r24, r26
    1474:	9b 07       	cpc	r25, r27
    1476:	71 f4       	brne	.+28     	; 0x1494 <free+0x8c>
    1478:	8d 91       	ld	r24, X+
    147a:	9c 91       	ld	r25, X
    147c:	11 97       	sbiw	r26, 0x01	; 1
    147e:	84 0f       	add	r24, r20
    1480:	95 1f       	adc	r25, r21
    1482:	02 96       	adiw	r24, 0x02	; 2
    1484:	91 83       	std	Z+1, r25	; 0x01
    1486:	80 83       	st	Z, r24
    1488:	12 96       	adiw	r26, 0x02	; 2
    148a:	8d 91       	ld	r24, X+
    148c:	9c 91       	ld	r25, X
    148e:	13 97       	sbiw	r26, 0x03	; 3
    1490:	93 83       	std	Z+3, r25	; 0x03
    1492:	82 83       	std	Z+2, r24	; 0x02
    1494:	21 15       	cp	r18, r1
    1496:	31 05       	cpc	r19, r1
    1498:	29 f4       	brne	.+10     	; 0x14a4 <free+0x9c>
    149a:	f0 93 b1 02 	sts	0x02B1, r31
    149e:	e0 93 b0 02 	sts	0x02B0, r30
    14a2:	3e c0       	rjmp	.+124    	; 0x1520 <free+0x118>
    14a4:	d9 01       	movw	r26, r18
    14a6:	13 96       	adiw	r26, 0x03	; 3
    14a8:	fc 93       	st	X, r31
    14aa:	ee 93       	st	-X, r30
    14ac:	12 97       	sbiw	r26, 0x02	; 2
    14ae:	4d 91       	ld	r20, X+
    14b0:	5d 91       	ld	r21, X+
    14b2:	a4 0f       	add	r26, r20
    14b4:	b5 1f       	adc	r27, r21
    14b6:	ea 17       	cp	r30, r26
    14b8:	fb 07       	cpc	r31, r27
    14ba:	79 f4       	brne	.+30     	; 0x14da <free+0xd2>
    14bc:	80 81       	ld	r24, Z
    14be:	91 81       	ldd	r25, Z+1	; 0x01
    14c0:	84 0f       	add	r24, r20
    14c2:	95 1f       	adc	r25, r21
    14c4:	02 96       	adiw	r24, 0x02	; 2
    14c6:	d9 01       	movw	r26, r18
    14c8:	11 96       	adiw	r26, 0x01	; 1
    14ca:	9c 93       	st	X, r25
    14cc:	8e 93       	st	-X, r24
    14ce:	82 81       	ldd	r24, Z+2	; 0x02
    14d0:	93 81       	ldd	r25, Z+3	; 0x03
    14d2:	13 96       	adiw	r26, 0x03	; 3
    14d4:	9c 93       	st	X, r25
    14d6:	8e 93       	st	-X, r24
    14d8:	12 97       	sbiw	r26, 0x02	; 2
    14da:	e0 e0       	ldi	r30, 0x00	; 0
    14dc:	f0 e0       	ldi	r31, 0x00	; 0
    14de:	8a 81       	ldd	r24, Y+2	; 0x02
    14e0:	9b 81       	ldd	r25, Y+3	; 0x03
    14e2:	00 97       	sbiw	r24, 0x00	; 0
    14e4:	19 f0       	breq	.+6      	; 0x14ec <free+0xe4>
    14e6:	fe 01       	movw	r30, r28
    14e8:	ec 01       	movw	r28, r24
    14ea:	f9 cf       	rjmp	.-14     	; 0x14de <free+0xd6>
    14ec:	ce 01       	movw	r24, r28
    14ee:	02 96       	adiw	r24, 0x02	; 2
    14f0:	28 81       	ld	r18, Y
    14f2:	39 81       	ldd	r19, Y+1	; 0x01
    14f4:	82 0f       	add	r24, r18
    14f6:	93 1f       	adc	r25, r19
    14f8:	20 91 ae 02 	lds	r18, 0x02AE
    14fc:	30 91 af 02 	lds	r19, 0x02AF
    1500:	28 17       	cp	r18, r24
    1502:	39 07       	cpc	r19, r25
    1504:	69 f4       	brne	.+26     	; 0x1520 <free+0x118>
    1506:	30 97       	sbiw	r30, 0x00	; 0
    1508:	29 f4       	brne	.+10     	; 0x1514 <free+0x10c>
    150a:	10 92 b1 02 	sts	0x02B1, r1
    150e:	10 92 b0 02 	sts	0x02B0, r1
    1512:	02 c0       	rjmp	.+4      	; 0x1518 <free+0x110>
    1514:	13 82       	std	Z+3, r1	; 0x03
    1516:	12 82       	std	Z+2, r1	; 0x02
    1518:	d0 93 af 02 	sts	0x02AF, r29
    151c:	c0 93 ae 02 	sts	0x02AE, r28
    1520:	df 91       	pop	r29
    1522:	cf 91       	pop	r28
    1524:	08 95       	ret

00001526 <fdevopen>:
    1526:	0f 93       	push	r16
    1528:	1f 93       	push	r17
    152a:	cf 93       	push	r28
    152c:	df 93       	push	r29
    152e:	ec 01       	movw	r28, r24
    1530:	8b 01       	movw	r16, r22
    1532:	00 97       	sbiw	r24, 0x00	; 0
    1534:	31 f4       	brne	.+12     	; 0x1542 <fdevopen+0x1c>
    1536:	61 15       	cp	r22, r1
    1538:	71 05       	cpc	r23, r1
    153a:	19 f4       	brne	.+6      	; 0x1542 <fdevopen+0x1c>
    153c:	80 e0       	ldi	r24, 0x00	; 0
    153e:	90 e0       	ldi	r25, 0x00	; 0
    1540:	38 c0       	rjmp	.+112    	; 0x15b2 <fdevopen+0x8c>
    1542:	6e e0       	ldi	r22, 0x0E	; 14
    1544:	70 e0       	ldi	r23, 0x00	; 0
    1546:	81 e0       	ldi	r24, 0x01	; 1
    1548:	90 e0       	ldi	r25, 0x00	; 0
    154a:	0e 94 de 0a 	call	0x15bc	; 0x15bc <calloc>
    154e:	fc 01       	movw	r30, r24
    1550:	00 97       	sbiw	r24, 0x00	; 0
    1552:	a1 f3       	breq	.-24     	; 0x153c <fdevopen+0x16>
    1554:	80 e8       	ldi	r24, 0x80	; 128
    1556:	83 83       	std	Z+3, r24	; 0x03
    1558:	01 15       	cp	r16, r1
    155a:	11 05       	cpc	r17, r1
    155c:	71 f0       	breq	.+28     	; 0x157a <fdevopen+0x54>
    155e:	13 87       	std	Z+11, r17	; 0x0b
    1560:	02 87       	std	Z+10, r16	; 0x0a
    1562:	81 e8       	ldi	r24, 0x81	; 129
    1564:	83 83       	std	Z+3, r24	; 0x03
    1566:	80 91 b2 02 	lds	r24, 0x02B2
    156a:	90 91 b3 02 	lds	r25, 0x02B3
    156e:	89 2b       	or	r24, r25
    1570:	21 f4       	brne	.+8      	; 0x157a <fdevopen+0x54>
    1572:	f0 93 b3 02 	sts	0x02B3, r31
    1576:	e0 93 b2 02 	sts	0x02B2, r30
    157a:	20 97       	sbiw	r28, 0x00	; 0
    157c:	c9 f0       	breq	.+50     	; 0x15b0 <fdevopen+0x8a>
    157e:	d1 87       	std	Z+9, r29	; 0x09
    1580:	c0 87       	std	Z+8, r28	; 0x08
    1582:	83 81       	ldd	r24, Z+3	; 0x03
    1584:	82 60       	ori	r24, 0x02	; 2
    1586:	83 83       	std	Z+3, r24	; 0x03
    1588:	80 91 b4 02 	lds	r24, 0x02B4
    158c:	90 91 b5 02 	lds	r25, 0x02B5
    1590:	89 2b       	or	r24, r25
    1592:	71 f4       	brne	.+28     	; 0x15b0 <fdevopen+0x8a>
    1594:	f0 93 b5 02 	sts	0x02B5, r31
    1598:	e0 93 b4 02 	sts	0x02B4, r30
    159c:	80 91 b6 02 	lds	r24, 0x02B6
    15a0:	90 91 b7 02 	lds	r25, 0x02B7
    15a4:	89 2b       	or	r24, r25
    15a6:	21 f4       	brne	.+8      	; 0x15b0 <fdevopen+0x8a>
    15a8:	f0 93 b7 02 	sts	0x02B7, r31
    15ac:	e0 93 b6 02 	sts	0x02B6, r30
    15b0:	cf 01       	movw	r24, r30
    15b2:	df 91       	pop	r29
    15b4:	cf 91       	pop	r28
    15b6:	1f 91       	pop	r17
    15b8:	0f 91       	pop	r16
    15ba:	08 95       	ret

000015bc <calloc>:
    15bc:	0f 93       	push	r16
    15be:	1f 93       	push	r17
    15c0:	cf 93       	push	r28
    15c2:	df 93       	push	r29
    15c4:	86 9f       	mul	r24, r22
    15c6:	80 01       	movw	r16, r0
    15c8:	87 9f       	mul	r24, r23
    15ca:	10 0d       	add	r17, r0
    15cc:	96 9f       	mul	r25, r22
    15ce:	10 0d       	add	r17, r0
    15d0:	11 24       	eor	r1, r1
    15d2:	c8 01       	movw	r24, r16
    15d4:	0e 94 6c 09 	call	0x12d8	; 0x12d8 <malloc>
    15d8:	ec 01       	movw	r28, r24
    15da:	00 97       	sbiw	r24, 0x00	; 0
    15dc:	29 f0       	breq	.+10     	; 0x15e8 <calloc+0x2c>
    15de:	a8 01       	movw	r20, r16
    15e0:	60 e0       	ldi	r22, 0x00	; 0
    15e2:	70 e0       	ldi	r23, 0x00	; 0
    15e4:	0e 94 fa 0a 	call	0x15f4	; 0x15f4 <memset>
    15e8:	ce 01       	movw	r24, r28
    15ea:	df 91       	pop	r29
    15ec:	cf 91       	pop	r28
    15ee:	1f 91       	pop	r17
    15f0:	0f 91       	pop	r16
    15f2:	08 95       	ret

000015f4 <memset>:
    15f4:	dc 01       	movw	r26, r24
    15f6:	01 c0       	rjmp	.+2      	; 0x15fa <memset+0x6>
    15f8:	6d 93       	st	X+, r22
    15fa:	41 50       	subi	r20, 0x01	; 1
    15fc:	50 40       	sbci	r21, 0x00	; 0
    15fe:	e0 f7       	brcc	.-8      	; 0x15f8 <memset+0x4>
    1600:	08 95       	ret

00001602 <_exit>:
    1602:	f8 94       	cli

00001604 <__stop_program>:
    1604:	ff cf       	rjmp	.-2      	; 0x1604 <__stop_program>
